Archive member included to satisfy reference by file (symbol)

arch/arm/cpu/hi3516cv300/libhi3516cv300.a(uart.o)
                              arch/arm/cpu/hi3516cv300/start.o (uart_early_init)
arch/arm/cpu/hi3516cv300/libhi3516cv300.a(lowlevel_init_v300.o)
                              arch/arm/cpu/hi3516cv300/start.o (start_ddr_training)
arch/arm/cpu/hi3516cv300/libhi3516cv300.a(emmc_boot.o)
                              arch/arm/cpu/hi3516cv300/start.o (emmc_boot_read)
arch/arm/cpu/hi3516cv300/libhi3516cv300.a(chip.o)
                              arch/arm/cpu/hi3516cv300/libhi3516cv300.a(lowlevel_init_v300.o) (reset_cpu)
arch/arm/lib/libarm.a(board.o)
                              arch/arm/cpu/hi3516cv300/start.o (start_armboot)
arch/arm/lib/libarm.a(interrupts.o)
                              arch/arm/lib/libarm.a(board.o) (enable_interrupts)
arch/arm/lib/libarm.a(memset.o)
                              arch/arm/lib/libarm.a(board.o) (memset)
arch/arm/lib/libarm.a(memcpy.o)
                              arch/arm/lib/libarm.a(interrupts.o) (memcpy)
net/libnet.a(eth.o)           arch/arm/lib/libarm.a(board.o) (eth_initialize)
net/libnet.a(net.o)           arch/arm/lib/libarm.a(board.o) (copy_filename)
net/libnet.a(rarp.o)          net/libnet.a(net.o) (RarpRequest)
net/libnet.a(tftp.o)          net/libnet.a(net.o) (TftpStart)
net/libnet.a(bootp.o)         net/libnet.a(net.o) (BootpRequest)
drivers/mmc/libmmc.a(mmc.o)   arch/arm/lib/libarm.a(board.o) (mmc_initialize)
drivers/mmc/libmmc.a(himciv200.o)
                              drivers/mmc/libmmc.a(mmc.o) (board_mmc_init)
drivers/mtd/nand/libnand.a(nand.o)
                              arch/arm/lib/libarm.a(board.o) (nand_init)
drivers/mtd/nand/libnand.a(nand_base.o)
                              drivers/mtd/nand/libnand.a(nand.o) (nand_scan)
drivers/mtd/nand/libnand.a(nand_bbt.o)
                              drivers/mtd/nand/libnand.a(nand_base.o) (nand_update_bbt)
drivers/mtd/nand/libnand.a(nand_ecc.o)
                              drivers/mtd/nand/libnand.a(nand_base.o) (nand_calculate_ecc)
drivers/mtd/nand/libnand.a(nand_ids.o)
                              drivers/mtd/nand/libnand.a(nand_base.o) (nand_manuf_ids)
drivers/mtd/nand/libnand.a(hinfc_common.o)
                              drivers/mtd/nand/libnand.a(nand_base.o) (nand_ecc_name)
drivers/mtd/nand/hifmc100/libhifmcv100.a(hifmc100_os.o)
                              drivers/mtd/nand/libnand.a(nand.o) (board_nand_init)
drivers/mtd/nand/hifmc100/libhifmcv100.a(hifmc100.o)
                              drivers/mtd/nand/hifmc100/libhifmcv100.a(hifmc100_os.o) (hifmc100_host_init)
drivers/mtd/nand/hifmc100/libhifmcv100.a(hifmc_spi_nand_ids.o)
                              drivers/mtd/nand/hifmc100/libhifmcv100.a(hifmc100.o) (spi_nand_feature_op)
drivers/mtd/spi/libspi_flash.a(spi_compatible.o)
                              arch/arm/lib/libarm.a(board.o) (spi_flash_probe)
drivers/mtd/spi/hifmc100/libhifmcv100.a(hifmc100_os.o)
                              drivers/mtd/spi/libspi_flash.a(spi_compatible.o) (hifmc100_spi_nor_probe)
drivers/mtd/spi/hifmc100/libhifmcv100.a(hifmc_spi_nor_ids.o)
                              drivers/mtd/spi/hifmc100/libhifmcv100.a(hifmc100_os.o) (start_up_addr_mode)
drivers/mtd/spi/hifmc100/libhifmcv100.a(hifmc100.o)
                              drivers/mtd/spi/hifmc100/libhifmcv100.a(hifmc_spi_nor_ids.o) (hifmc100_read_ids)
drivers/net/hisfv300/libhisfv300.a(net-drv.o)
                              net/libnet.a(net.o) (eth_init)
drivers/net/hisfv300/libhisfv300.a(mii-drv.o)
                              drivers/net/hisfv300/libhisfv300.a(net-drv.o) (get_phy_device)
drivers/net/hisfv300/libhisfv300.a(ctrl.o)
                              drivers/net/hisfv300/libhisfv300.a(net-drv.o) (hieth_irq_enable)
drivers/net/hisfv300/libhisfv300.a(glb.o)
                              drivers/net/hisfv300/libhisfv300.a(net-drv.o) (hieth_glb_preinit_dummy)
drivers/net/hisfv300/libhisfv300.a(mac.o)
                              drivers/net/hisfv300/libhisfv300.a(net-drv.o) (hieth_set_linkstat)
drivers/net/hisfv300/libhisfv300.a(mdio.o)
                              drivers/net/hisfv300/libhisfv300.a(mii-drv.o) (hieth_mdio_read)
drivers/net/hisfv300/libhisfv300.a(sys.o)
                              drivers/net/hisfv300/libhisfv300.a(net-drv.o) (set_efuse_unread)
common/bootss2.a(cmd_bootss2.o)
                              arch/arm/lib/libarm.a(board.o) (comp_save_snapshot_image)
drivers/serial/libserial.a(serial_pl01x.o)
                              arch/arm/lib/libarm.a(board.o) (serial_init)
drivers/usb/gadget/hiudc/libhiudc.a(device_loader.o)
                              drivers/serial/libserial.a(serial_pl01x.o) (udc_puts)
drivers/usb/gadget/hiudc/libhiudc.a(device.o)
                              drivers/usb/gadget/hiudc/libhiudc.a(device_loader.o) (dwc_get_device_speed)
common/libcommon.a(cmd_boot.o)
                              (__u_boot_cmd_reset)
common/libcommon.a(cmd_bootm.o)
                              (__u_boot_cmd_bootm)
common/libcommon.a(cmd_ddr_training_v2.o)
                              (__u_boot_cmd_ddr)
common/libcommon.a(cmd_ext2.o)
                              (__u_boot_cmd_ext2load)
common/libcommon.a(cmd_fat.o)
                              (__u_boot_cmd_fatinfo)
common/libcommon.a(cmd_getinfo.o)
                              (__u_boot_cmd_getinfo)
common/libcommon.a(cmd_help.o)
                              (__u_boot_cmd_question_mark)
common/libcommon.a(cmd_hle_double_system_bootm.o)
                              (__u_boot_cmd_hle_bootm)
common/libcommon.a(cmd_load.o)
                              (__u_boot_cmd_loady)
common/libcommon.a(cmd_mem.o)
                              (__u_boot_cmd_mtest)
common/libcommon.a(cmd_mii.o)
                              (__u_boot_cmd_mii)
common/libcommon.a(cmd_mmc.o)
                              (__u_boot_cmd_mmc)
common/libcommon.a(cmd_nand.o)
                              (__u_boot_cmd_nboot)
common/libcommon.a(cmd_net.o)
                              (__u_boot_cmd_ping)
common/libcommon.a(cmd_nvedit.o)
                              net/libnet.a(net.o) (get_env_id)
common/libcommon.a(cmd_sf.o)  common/libcommon.a(cmd_hle_double_system_bootm.o) (do_spi_flash_probe)
common/libcommon.a(cmd_ugzip.o)
                              (__u_boot_cmd_ugzip)
common/libcommon.a(cmd_version.o)
                              (__u_boot_cmd_version)
common/libcommon.a(command.o)
                              common/libcommon.a(cmd_bootm.o) (find_cmd_tbl)
common/libcommon.a(console.o)
                              arch/arm/lib/libarm.a(board.o) (printf)
common/libcommon.a(dlmalloc.o)
                              arch/arm/lib/libarm.a(board.o) (mem_malloc_init)
common/libcommon.a(download_process.o)
                              arch/arm/lib/libarm.a(board.o) (download_boot)
common/libcommon.a(env_common.o)
                              common/libcommon.a(cmd_nvedit.o) (env_crc_update)
common/libcommon.a(env_common_func.o)
                              common/libcommon.a(env_common.o) (env_get_char_spec)
common/libcommon.a(env_emmc.o)
                              common/libcommon.a(env_common_func.o) (emmc_env_get_char_spec)
common/libcommon.a(env_nand.o)
                              common/libcommon.a(env_common_func.o) (nand_env_get_char_spec)
common/libcommon.a(env_sf.o)  common/libcommon.a(env_common_func.o) (sf_env_get_char_spec)
common/libcommon.a(exports.o)
                              arch/arm/lib/libarm.a(board.o) (jumptable_init)
common/libcommon.a(flash_part.o)
                              common/bootss2.a(cmd_bootss2.o) (find_flash_part)
common/libcommon.a(image.o)   common/libcommon.a(cmd_bootm.o) (image_check_hcrc)
common/libcommon.a(main.o)    common/libcommon.a(cmd_bootm.o) (show_boot_progress)
common/libcommon.a(miiphyutil.o)
                              net/libnet.a(eth.o) (miiphy_init)
common/libcommon.a(stdio.o)   common/libcommon.a(console.o) (stdio_get_list)
common/libcommon.a(xyzModem.o)
                              common/libcommon.a(cmd_load.o) (xyzModem_stream_open)
product/libproduct.a(sample.o)
                              arch/arm/lib/libarm.a(board.o) (product_control)
board/hi3516cv300/libhi3516cv300.a(board.o)
                              common/bootss2.a(cmd_bootss2.o) (get_boot_media)
lib/libgeneric.a(crc16.o)     common/libcommon.a(xyzModem.o) (cyg_crc16)
lib/libgeneric.a(crc32.o)     common/libcommon.a(cmd_mem.o) (crc32)
lib/libgeneric.a(display_options.o)
                              net/libnet.a(tftp.o) (print_size)
lib/libgeneric.a(div64.o)     drivers/mmc/libmmc.a(mmc.o) (__div64_32)
lib/libgeneric.a(gunzip.o)    common/libcommon.a(cmd_bootm.o) (gunzip)
lib/libgeneric.a(net_utils.o)
                              arch/arm/lib/libarm.a(board.o) (string_to_ip)
lib/libgeneric.a(string.o)    net/libnet.a(net.o) (strcpy)
lib/libgeneric.a(time.o)      arch/arm/cpu/hi3516cv300/libhi3516cv300.a(chip.o) (udelay)
lib/libgeneric.a(vsprintf.o)  arch/arm/lib/libarm.a(board.o) (simple_strtoul)
lib/libgeneric.a(match_table.o)
                              drivers/mtd/nand/libnand.a(hinfc_common.o) (reg2type)
lib/libgeneric.a(zlib.o)      lib/libgeneric.a(gunzip.o) (inflateInit2_)
lib/libgeneric.a(ctype.o)     lib/libgeneric.a(display_options.o) (_ctype)
lib/hw_dec/libhw_dec.a(hw_decompress.o)
                              common/bootss2.a(cmd_bootss2.o) (hw_dec_decompress)
drivers/ddr/libddr.a(ddr_cmd_ctl.o)
                              common/libcommon.a(cmd_ddr_training_v2.o) (ddr_cmd_result_display)
drivers/ddr/libddr.a(ddr_cmd_loc.o)
                              drivers/ddr/libddr.a(ddr_cmd_ctl.o) (ddr_training_cmd_start)
arch/arm/cpu/hi3516cv300/hi3516cv300/libhi3516cv300.a(timer.o)
                              arch/arm/lib/libarm.a(board.o) (timer_init)
arch/arm/lib/libarm.a(bootm.o)
                              common/libcommon.a(cmd_bootm.o) (do_bootm_linux)
arch/arm/lib/libarm.a(cache.o)
                              common/libcommon.a(cmd_load.o) (flush_cache)
arch/arm/lib/libarm.a(process.o)
                              drivers/mmc/libmmc.a(himciv200.o) (add_shutdown)
arch/arm/lib/libarm.a(reset.o)
                              common/libcommon.a(cmd_boot.o) (do_reset)
arch/arm/lib/libarm.a(hibernate_arm9.o)
                              arch/arm/lib/libarm.a(bootm.o) (restore_processor_state_ext)
arch/arm/lib/libarm.a(bootm_asm.o)
                              arch/arm/lib/libarm.a(hibernate_arm9.o) (call_swsusp_resume)
fs/fat/libfat.a(fat.o)        common/libcommon.a(cmd_fat.o) (fat_register_device)
fs/ext2/libext2fs.a(ext2fs.o)
                              common/libcommon.a(cmd_ext2.o) (ext2fs_ls)
fs/ext2/libext2fs.a(dev.o)    common/libcommon.a(cmd_ext2.o) (ext2fs_set_blk_dev)
disk/libdisk.a(part.o)        common/libcommon.a(cmd_ext2.o) (get_dev)
disk/libdisk.a(part_dos.o)    disk/libdisk.a(part.o) (test_part_dos)
drivers/mmc/libmmc.a(himciv200_dbg_boot_read.o)
                              common/libcommon.a(cmd_mmc.o) (emmc_bootmode_read)
fs/ext4/libext4.a(unsparse.o)
                              common/libcommon.a(cmd_mmc.o) (ext4_unsparse)
drivers/mtd/libmtd.a(hifmc_common.o)
                              drivers/mtd/nand/hifmc100/libhifmcv100.a(hifmc100_os.o) (hifmc_ip_ver_check)
drivers/mtd/libmtd.a(hifmc_hi3516cv300.o)
                              drivers/mtd/nand/hifmc100/libhifmcv100.a(hifmc100.o) (hifmc_set_fmc_system_clock)
drivers/mtd/nand/libnand.a(nand_util.o)
                              common/bootss2.a(cmd_bootss2.o) (nand_erase_opts)
lib/libgeneric.a(vsnprintf.o)
                              drivers/ddr/libddr.a(ddr_cmd_ctl.o) (snprintf)
arch/arm/cpu/hi3516cv300/libhi3516cv300.a(cpu.o)
                              arch/arm/lib/libarm.a(bootm.o) (cleanup_before_linux)
arch/arm/lib/libarm.a(cache-cp15.o)
                              arch/arm/cpu/hi3516cv300/libhi3516cv300.a(cpu.o) (icache_disable)
arch/arm/lib/libarm.a(mmu.o)  arch/arm/lib/libarm.a(cache-cp15.o) (mmu_pagedir_init)
/opt/hisi-linux/x86-arm/arm-himix100-linux/host_bin/../lib/gcc/arm-linux-uclibceabi/6.3.0/libgcc.a(_ashldi3.o)
                              drivers/mmc/libmmc.a(mmc.o) (__aeabi_llsl)
/opt/hisi-linux/x86-arm/arm-himix100-linux/host_bin/../lib/gcc/arm-linux-uclibceabi/6.3.0/libgcc.a(_ashrdi3.o)
                              drivers/mtd/nand/libnand.a(nand_base.o) (__aeabi_lasr)
/opt/hisi-linux/x86-arm/arm-himix100-linux/host_bin/../lib/gcc/arm-linux-uclibceabi/6.3.0/libgcc.a(_divsi3.o)
                              drivers/usb/gadget/hiudc/libhiudc.a(device.o) (__aeabi_idiv)
/opt/hisi-linux/x86-arm/arm-himix100-linux/host_bin/../lib/gcc/arm-linux-uclibceabi/6.3.0/libgcc.a(_dvmd_lnx.o)
                              /opt/hisi-linux/x86-arm/arm-himix100-linux/host_bin/../lib/gcc/arm-linux-uclibceabi/6.3.0/libgcc.a(_divsi3.o) (__aeabi_idiv0)
/opt/hisi-linux/x86-arm/arm-himix100-linux/host_bin/../lib/gcc/arm-linux-uclibceabi/6.3.0/libgcc.a(_lshrdi3.o)
                              drivers/mtd/nand/libnand.a(nand_base.o) (__aeabi_llsr)
/opt/hisi-linux/x86-arm/arm-himix100-linux/host_bin/../lib/gcc/arm-linux-uclibceabi/6.3.0/libgcc.a(_udivsi3.o)
                              net/libnet.a(tftp.o) (__aeabi_uidiv)

Memory Configuration

Name             Origin             Length             Attributes
*default*        0x00000000         0xffffffff

Linker script and memory map

                0x00000000                . = 0x0
                0x00000000                . = ALIGN (0x4)

.text           0x81800000    0x2e944
                0x81800000                __text_start = .
 arch/arm/cpu/hi3516cv300/start.o(.text)
 .text          0x81800000     0x17a8 arch/arm/cpu/hi3516cv300/start.o
                0x81800000                _start
                0x81801040                _blank_zone_start
                0x81801044                _blank_zone_end
                0x81801054                _armboot_start
                0x81801058                _bss_start
                0x8180105c                _bss_end
                0x81801598                init_registers
 drivers/ddr/ddr_training_impl.o(.text)
 .text          0x818017a8     0x1610 drivers/ddr/ddr_training_impl.o
                0x81801934                ddr_training_set_timing
                0x81801968                ddr_training_stat
                0x818019d0                ddr_training_check_bypass
                0x818019ec                ddr_training_phy_disable
                0x818019fc                ddr_training_get_base
                0x81801a34                ddr_training_switch_axi
                0x81801a38                ddr_dmc_get_reversed
                0x81801a48                ddr_phy_cfg_update
                0x81801a78                ddr_training_save_reg
                0x81801b7c                ddr_training_restore_reg
                0x81801db0                ddr_phy_set_dq_bdl
                0x81801e0c                ddr_phy_get_dq_bdl
                0x81801e50                ddr_phy_get_byte_num
                0x81801e68                ddr_ddrt_init
                0x81801f18                ddr_ddrt_test
                0x81802028                ddr_dataeye_check_dq
                0x818021c4                ddr_dataeye_deskew
                0x81802618                ddr_adjust_dataeye
                0x81802710                ddr_dataeye_training
                0x81802788                ddr_hw_training
                0x81802818                ddr_mpr_check
                0x81802820                ddr_write_leveling
                0x81802b4c                ddr_gate_training
 drivers/ddr/ddr_training_ctl.o(.text)
 .text          0x81802db8      0x1a4 drivers/ddr/ddr_training_ctl.o
                0x81802db8                ddr_sw_training_func
                0x81802f58                ddr_sw_training_if
 drivers/ddr/ddr_training_boot.o(.text)
 .text          0x81802f5c      0x1b8 drivers/ddr/ddr_training_boot.o
                0x81802f5c                ddr_result_data_save
                0x81802f60                ddr_lpca_data_save
                0x81802f64                ddr_ddrt_get_test_addr
                0x81802f6c                ddr_training_local_str
                0x81802fcc                ddr_training_error
                0x818030ec                ddr_training_start
                0x81803100                ddr_training_suc
 drivers/ddr/ddr_training_custom.o(.text)
 .text          0x81803114        0xc drivers/ddr/ddr_training_custom.o
                0x81803114                ddr_cmd_prepare_copy
                0x81803118                ddr_cmd_site_save
                0x8180311c                ddr_cmd_site_restore
                0x81803120                __init_end = .
                0x00000001                ASSERT (((__init_end - __text_start) < 0x4000), init sections too big!)
 *(.text)
 .text          0x81803120       0xc8 arch/arm/cpu/hi3516cv300/libhi3516cv300.a(uart.o)
                0x81803120                uart_early_init
                0x81803154                uart_early_puts
                0x81803184                uart_early_put_hex
                0x818031c8                uart_early_putc
 .text          0x818031e8      0x1c0 arch/arm/cpu/hi3516cv300/libhi3516cv300.a(lowlevel_init_v300.o)
                0x818031e8                get_hpm_value
                0x81803214                set_hpm_core_volt
                0x818032dc                start_svb
                0x818032fc                start_ddr_training
 .text          0x818033a8      0x420 arch/arm/cpu/hi3516cv300/libhi3516cv300.a(emmc_boot.o)
                0x81803438                emmc_boot_mode_deinit
                0x81803450                emmc_boot_read
 .text          0x818037c8       0x48 arch/arm/cpu/hi3516cv300/libhi3516cv300.a(chip.o)
                0x818037c8                get_chipid_reg
                0x818037e0                get_ca_vendor_reg
                0x818037e8                reset_cpu
 .text          0x81803810      0x224 arch/arm/lib/libarm.a(board.o)
                0x81803888                coloured_LED_init
                0x81803888                __coloured_LED_init
                0x8180388c                red_LED_on
                0x8180388c                __red_LED_on
                0x81803890                __red_LED_off
                0x81803890                red_LED_off
                0x81803894                green_LED_on
                0x81803894                __green_LED_on
                0x81803898                __green_LED_off
                0x81803898                green_LED_off
                0x8180389c                __yellow_LED_on
                0x8180389c                yellow_LED_on
                0x818038a0                __yellow_LED_off
                0x818038a0                yellow_LED_off
                0x818038a4                blue_LED_on
                0x818038a4                __blue_LED_on
                0x818038a8                blue_LED_off
                0x818038a8                __blue_LED_off
                0x818038ac                hang
                0x818038c0                start_armboot
 .text          0x81803a34      0x260 arch/arm/lib/libarm.a(interrupts.o)
                0x81803a34                enable_interrupts
                0x81803a38                disable_interrupts
                0x81803a40                bad_mode
                0x81803a5c                show_regs
                0x81803b98                do_undefined_instruction
                0x81803bbc                do_software_interrupt
                0x81803be0                do_prefetch_abort
                0x81803c04                do_data_abort
                0x81803c28                do_not_used
                0x81803c4c                do_fiq
                0x81803c70                do_irq
 *fill*         0x81803c94        0xc 
 .text          0x81803ca0       0xd8 arch/arm/lib/libarm.a(memset.o)
                0x81803cc0                memset
 .text          0x81803d78      0x3ac arch/arm/lib/libarm.a(memcpy.o)
                0x81803d78                memcpy
 .text          0x81804124      0x144 net/libnet.a(eth.o)
                0x81804124                eth_parse_enetaddr
                0x81804184                eth_getenv_enetaddr
                0x818041e0                eth_setenv_enetaddr
                0x81804214                eth_getenv_enetaddr_by_index
                0x81804258                eth_initialize
 .text          0x81804268     0x1324 net/libnet.a(net.o)
                0x818042dc                NetStartAgain
                0x818043b0                NetSetHandler
                0x818043c0                NetSetTimeout
                0x818043f4                NetSendPacket
                0x818043f8                NetCksum
                0x81804434                NetCksumOk
                0x81804458                NetEthHdrSize
                0x81804494                NetSetEther
                0x81804540                ArpRequest
                0x8180463c                ArpTimeoutCheck
                0x818046b0                PingSend
                0x81804800                NetReceive
                0x81804dc0                NetSetIP
                0x81804ec8                NetSendUDPPacket
                0x818050ac                copy_filename
                0x818050f0                ip_to_string
                0x81805150                VLAN_to_string
                0x8180519c                string_to_VLAN
                0x818051f4                getenv_VLAN
                0x81805204                NetLoop
 .text          0x8180558c      0x180 net/libnet.a(rarp.o)
                0x818055cc                RarpRequest
 .text          0x8180570c      0xb88 net/libnet.a(tftp.o)
                0x81805ee8                print_IPaddr
                0x81805f04                TftpStart
 .text          0x81806294      0x610 net/libnet.a(bootp.o)
                0x81806634                BootpRequest
 .text          0x818068a4     0x113c drivers/mmc/libmmc.a(mmc.o)
                0x81806908                __board_mmc_getcd
                0x81806908                board_mmc_getcd
                0x81806910                mmc_send_cmd
                0x81806918                mmc_set_blocklen
                0x8180694c                find_mmc_device
                0x81806ba8                mmc_read_block
                0x81806c04                mmc_read
                0x81806d18                mmc_go_idle
                0x81806d68                sd_send_op_cond
                0x81806e60                mmc_send_op_cond
                0x81806efc                mmc_send_ext_csd
                0x81806f4c                mmc_switch
                0x81807094                mmc_change_freq
                0x818070bc                sd_switch
                0x81807128                sd_change_freq
                0x818072ec                mmc_set_ios
                0x818072f4                mmc_set_clock
                0x81807314                mmc_set_bus_width
                0x8180731c                mmc_startup
                0x818077a4                mmc_send_if_cond
                0x8180781c                mmc_register
                0x81807884                mmc_get_dev
                0x81807898                mmc_init
                0x81807948                cpu_mmc_init
                0x81807950                print_mmc_devices
                0x818079bc                mmc_initialize
 .text          0x818079e0     0x1128 drivers/mmc/libmmc.a(himciv200.o)
                0x818082b4                board_mmc_init
                0x818084e0                check_ext_csd
                0x81808708                select_boot_part
                0x818087e8                print_ext_csd
                0x81808838                print_mmc_reg
                0x81808968                mmc_flash_init
 .text          0x81808b08       0xb4 drivers/mtd/nand/libnand.a(nand.o)
                0x81808b08                nand_init
 .text          0x81808bbc     0x3cc8 drivers/mtd/nand/libnand.a(nand_base.o)
                0x8180ab48                nand_wait_ready
                0x8180b6ec                nand_erase_nand
                0x8180ba68                get_nand_info
                0x8180ba74                nand_scan_ident
                0x8180c294                nand_scan_tail
                0x8180c83c                nand_scan
                0x8180c85c                nand_release
 .text          0x8180c884     0x1690 drivers/mtd/nand/libnand.a(nand_bbt.o)
                0x8180d6e0                nand_update_bbt
                0x8180d998                nand_scan_bbt
                0x8180de10                nand_default_bbt
                0x8180dec0                nand_isbad_bbt
 .text          0x8180df14      0x24c drivers/mtd/nand/libnand.a(nand_ecc.o)
                0x8180df14                nand_calculate_ecc
                0x8180e03c                nand_correct_data
 .text          0x8180e160        0x0 drivers/mtd/nand/libnand.a(nand_ids.o)
 .text          0x8180e160      0x190 drivers/mtd/nand/libnand.a(hinfc_common.o)
                0x8180e160                nand_ecc_name
                0x8180e17c                nand_page_name
                0x8180e198                nandpage_size2type
                0x8180e1b0                nandpage_type2size
                0x8180e1c8                match_ecc_type_to_yaffs
                0x8180e1ec                match_page_reg_to_type
                0x8180e210                match_page_type_to_reg
                0x8180e234                match_page_type_to_str
                0x8180e250                match_ecc_reg_to_type
                0x8180e274                match_ecc_type_to_reg
                0x8180e298                match_ecc_type_to_str
                0x8180e2b4                match_page_size_to_type
                0x8180e2d8                match_page_type_to_size
 .text          0x8180e2f0      0x198 drivers/mtd/nand/hifmc100/libhifmcv100.a(hifmc100_os.o)
                0x8180e2f0                board_nand_init
                0x8180e450                nand_get_ecctype
 .text          0x8180e488     0x11b0 drivers/mtd/nand/hifmc100/libhifmcv100.a(hifmc100.o)
                0x8180f3ac                hifmc100_ecc0_switch
                0x8180f3ec                hifmc100_host_init
                0x8180f574                hifmc100_spi_nand_init
 .text          0x8180f638      0x7f8 drivers/mtd/nand/hifmc100/libhifmcv100.a(hifmc_spi_nand_ids.o)
                0x8180f6b4                spi_nand_feature_op
                0x8180fe18                hifmc_spi_nand_ids_register
 .text          0x8180fe30       0x74 drivers/mtd/spi/libspi_flash.a(spi_compatible.o)
                0x8180fe30                spi_flash_probe
                0x8180fe58                get_spiflash_info
                0x8180fe80                spi_flash_free
                0x8180fe84                spi_flash_lock
 .text          0x8180fea4      0x278 drivers/mtd/spi/hifmc100/libhifmcv100.a(hifmc100_os.o)
                0x8180ff20                hifmc100_spi_nor_probe
                0x81810000                hifmc100_get_spi_nor_info
                0x81810034                hifmc100_spi_flash_lock
 .text          0x8181011c     0x14a4 drivers/mtd/spi/hifmc100/libhifmcv100.a(hifmc_spi_nor_ids.o)
                0x81810198                spi_general_get_flash_register
                0x81810a98                spi_is_quad
                0x81811170                hifmc_spi_nor_get_erase
                0x818111d0                hifmc_spi_nor_probe
 .text          0x818115c0      0xf24 drivers/mtd/spi/hifmc100/libhifmcv100.a(hifmc100.o)
                0x81811d80                hifmc100_read_ids
                0x81811e28                hifmc100_spi_nor_init
                0x81811edc                spi_lock_update_address
                0x81811f90                hifmc100_handle_bp_rdcr_info
                0x81811ff4                hifmc100_handle_bp_rdsr_info
                0x81812050                hifmc100_set_spi_lock_info
                0x8181210c                hifmc100_bp_to_level
                0x8181214c                hifmc100_get_bp_lock_level
                0x81812280                hifmc100_spi_nor_scan
                0x81812310                hifmc100_spi_lock
 .text          0x818124e4      0xaf0 drivers/net/hisfv300/libhisfv300.a(net-drv.o)
                0x8181274c                string_to_mac
                0x818127ac                srandom
                0x818127c4                random
                0x8181282c                random_ether_addr
                0x81812948                eth_set_host_mac_address
                0x81812a24                eth_init
                0x81812ccc                eth_rx
                0x81812e30                eth_send
                0x81812f88                eth_halt
 .text          0x81812fd4      0x35c drivers/net/hisfv300/libhisfv300.a(mii-drv.o)
                0x8181300c                get_phy_device
                0x818131e8                hieth_mdiobus_driver_init
                0x818132b8                hieth_mdiobus_driver_exit
 .text          0x81813330       0x94 drivers/net/hisfv300/libhisfv300.a(ctrl.o)
                0x81813330                hieth_irq_enable
                0x81813348                hieth_irq_disable
                0x81813360                hieth_read_irqstatus
                0x81813370                hieth_read_raw_irqstatus
                0x81813380                hieth_clear_irqstatus
                0x8181339c                hieth_set_endian_mode
 .text          0x818133c4      0x1cc drivers/net/hisfv300/libhisfv300.a(glb.o)
                0x818133c4                hieth_glb_preinit_dummy
 .text          0x81813590      0x20c drivers/net/hisfv300/libhisfv300.a(mac.o)
                0x818135fc                hieth_set_linkstat
                0x81813600                hieth_get_linkstat
                0x81813624                hieth_set_mac_leadcode_cnt_limit
                0x81813664                hieth_set_mac_trans_interval_bits
                0x818136f4                hieth_set_mac_fc_interval
                0x8181373c                hieth_set_negmode
                0x81813740                hieth_get_negmode
                0x81813760                hieth_set_mii_mode
 .text          0x8181379c      0x25c drivers/net/hisfv300/libhisfv300.a(mdio.o)
                0x818137dc                hieth_mdio_read
                0x818138c4                hieth_mdio_write
                0x81813980                hieth_mdio_reset
                0x818139e4                hieth_mdio_init
                0x818139f4                hieth_mdio_exit
 .text          0x818139f8       0xb4 drivers/net/hisfv300/libhisfv300.a(sys.o)
                0x818139f8                set_efuse_unread
                0x818139fc                set_inner_phy_addr
                0x81813a00                revise_led_shine
                0x81813a04                set_phy_valtage
                0x81813a08                hieth_sys_startup
                0x81813a30                hieth_sys_allstop
                0x81813a34                hieth_sys_init
                0x81813aa8                hieth_sys_exit
 .text          0x81813aac      0xd54 common/bootss2.a(cmd_bootss2.o)
                0x81813e80                find_hibernate_part
                0x81813fb8                do_bootss
                0x818145e8                comp_save_snapshot_image
 .text          0x81814800      0x11c drivers/serial/libserial.a(serial_pl01x.o)
                0x81814800                serial_init
                0x81814838                serial_putc
                0x81814870                serial_puts
                0x81814898                serial_puts_to_hitool
                0x818148d4                serial_getc
                0x818148fc                serial_tstc
                0x81814918                serial_setbrg
 .text          0x8181491c      0x598 drivers/usb/gadget/hiudc/libhiudc.a(device_loader.o)
                0x8181491c                usb_ep0_complete
                0x81814920                usb_tx_status_complete
                0x8181494c                rx_cmd
                0x8181498c                rx_data
                0x818149d4                usb_rx_data_complete
                0x81814a1c                tx_status
                0x81814ab4                usb_rx_cmd_complete
                0x81814bfc                udc_puts
                0x81814c14                usb_init_ep12
                0x81814cbc                usb_init_ep0
                0x81814d4c                usb_setup
 .text          0x81814eb4     0x2c7c drivers/usb/gadget/hiudc/libhiudc.a(device.o)
                0x81814f68                udc_disconnect
                0x81814f6c                DWC_MODIFY_REG32
                0x81814f80                dwc_core_reset
                0x81815020                dwc_flush_tx_fifo
                0x818150a4                dwc_flush_rx_fifo
                0x81815114                dwc_ep_write_packet
                0x818151cc                dwc_read_packet
                0x818151f8                dwc_read_setup_packet
                0x81815214                dwc_get_device_speed
                0x81815254                dwc_ep0_activate
                0x818152c8                dwc_ep_activate
                0x818153e4                dwc_pcd_ep_enable
                0x8181554c                dwc_request_done
                0x81815614                dwc_request_nuke
                0x81815650                dwc_otg_ep_start_transfer
                0x81815950                dwc_otg_ep_start_zl_transfer
                0x81815a74                dwc_otg_ep0_start_transfer
                0x81815ef4                dwc_otg_ep0_continue_transfer
                0x8181643c                start_next_request
                0x818166fc                ep_queue
                0x81816a30                dwc_handle_usb_reset_intr
                0x81816b3c                dwc_handle_enum_done_intr
                0x81816bac                dwc_handle_rx_status_q_level_intr
                0x81816cb8                dwc_pcd_handle_np_tx_fifo_empty_intr
                0x81816e98                udc_irq_poll
                0x81817528                dwc_pcd_init
                0x818177b8                udc_init
                0x81817860                hiusb_init
                0x81817ac4                udc_connect
 .text          0x81817b30       0x84 common/libcommon.a(cmd_boot.o)
                0x81817b30                do_go_exec
                0x81817b40                do_go
 .text          0x81817bb4      0xaac common/libcommon.a(cmd_bootm.o)
                0x81818200                arch_preboot_os
                0x81818200                __arch_preboot_os
                0x81818204                do_bootm_subcommand
                0x818183b8                do_bootm
 .text          0x81818660      0x424 common/libcommon.a(cmd_ddr_training_v2.o)
                0x81818660                cmd_ddr_set_log_level
                0x81818774                do_ddr_training
                0x81818a7c                check_ddr_training
 .text          0x81818a84      0x454 common/libcommon.a(cmd_ext2.o)
                0x81818a84                do_ext2load
                0x81818d9c                do_ext2ls
 .text          0x81818ed8      0x368 common/libcommon.a(cmd_fat.o)
                0x81818ed8                do_fat_fsinfo
                0x81818fb4                do_fat_fsload
                0x81819134                do_fat_ls
 .text          0x81819240      0x260 common/libcommon.a(cmd_getinfo.o)
                0x81819240                do_getinfo
 .text          0x818194a0       0x44 common/libcommon.a(cmd_help.o)
                0x818194a0                do_help
 .text          0x818194e4      0x4dc common/libcommon.a(cmd_hle_double_system_bootm.o)
                0x818194e4                printf_config_info
                0x81819578                init_config_info
                0x8181976c                select_boot_system_partition
                0x818198ec                do_double_system_bootm
 .text          0x818199c0      0x97c common/libcommon.a(cmd_load.o)
                0x81819b0c                send_pad
                0x81819b3c                ktrans
                0x81819b60                chk1
                0x81819b8c                s1_sendpacket
                0x81819bb4                send_ack
                0x81819c14                send_nack
                0x81819c74                k_data_init
                0x81819c8c                k_data_save
                0x81819cb0                k_data_restore
                0x81819cd4                k_data_char
                0x81819d20                handle_send_packet
                0x81819ee0                do_load_serial_bin
 .text          0x8181a33c      0x908 common/libcommon.a(cmd_mem.o)
                0x8181a33c                do_mem_loop
                0x8181a424                do_mem_md
                0x8181a4f8                do_mem_base
                0x8181a538                do_mem_mtest
                0x8181a6ec                do_mem_mw
                0x8181a7a4                do_mem_cmp
                0x8181aa84                do_mem_mm
                0x8181aaa8                do_mem_cp
                0x8181ab78                do_mem_crc
                0x8181ac20                do_mem_nm
 .text          0x8181ac44      0x7d8 common/libcommon.a(cmd_mii.o)
                0x8181ac98                MII_dump_0_to_5
                0x8181af74                do_mii
 .text          0x8181b41c      0x74c common/libcommon.a(cmd_mmc.o)
                0x8181b41c                do_mmcinfo
                0x8181b574                do_mmcops
 .text          0x8181bb68      0xfe0 common/libcommon.a(cmd_nand.o)
                0x8181bcf4                do_nand
                0x8181c7f4                do_nandboot
 .text          0x8181cb48      0x3f4 common/libcommon.a(cmd_net.o)
                0x8181ce94                do_bootp
                0x8181cea0                do_tftp
                0x8181ceac                do_rarpb
                0x8181ceb8                do_ping
 .text          0x8181cf3c      0x7f4 common/libcommon.a(cmd_nvedit.o)
                0x8181cf3c                do_saveenv
                0x8181cf6c                get_env_id
                0x8181cf7c                envmatch
                0x8181d0c4                do_printenv
                0x8181d15c                _do_setenv
                0x8181d59c                setenv
                0x8181d5e8                do_setenv
                0x8181d614                getenv
                0x8181d684                getenv_r
 .text          0x8181d730      0x88c common/libcommon.a(cmd_sf.o)
                0x8181d730                do_spi_flash_probe
                0x8181d8dc                do_spi_flash_read_write
                0x8181db98                do_spi_flash_erase
 .text          0x8181dfbc      0x10c common/libcommon.a(cmd_ugzip.o)
 .text          0x8181e0c8       0x20 common/libcommon.a(cmd_version.o)
                0x8181e0c8                do_version
 .text          0x8181e0e8      0x830 common/libcommon.a(command.o)
                0x8181e0e8                var_complete
                0x8181e174                find_cmd_tbl
                0x8181e20c                find_cmd
                0x8181e234                cmd_usage
                0x8181e254                _do_help
                0x8181e3e4                install_auto_complete
                0x8181e420                cmd_auto_complete
                0x8181e8c8                cmd_get_data_size
 .text          0x8181e918      0x598 common/libcommon.a(console.o)
                0x8181e9b8                serial_printf
                0x8181e9fc                fgetc
                0x8181ea20                ftstc
                0x8181ea44                fputc
                0x8181ea64                fputs
                0x8181ea84                fprintf
                0x8181eacc                getc
                0x8181eaf0                tstc
                0x8181eb14                putc
                0x8181eb38                puts
                0x8181eb5c                printf
                0x8181eba0                print_to_hitool
                0x8181ebe4                vprintf
                0x8181ec14                ctrlc
                0x8181ec64                disable_ctrlc
                0x8181ec7c                had_ctrlc
                0x8181ec8c                clear_ctrlc
                0x8181eca0                dbg
                0x8181ecac                search_device
                0x8181ecd4                console_assign
                0x8181ed14                console_init_f
                0x8181ed24                stdio_print_current_devices
                0x8181edd4                console_init_r
 .text          0x8181eeb0      0xfd8 common/libcommon.a(dlmalloc.o)
                0x8181eeb0                sbrk
                0x8181eeec                mem_malloc_init
                0x8181ef10                malloc_trim
                0x8181efd4                free
                0x8181f1fc                malloc
                0x8181f7c8                calloc
                0x8181f894                realloc
                0x8181fcb4                memalign
                0x8181fdc4                valloc
                0x8181fdd0                pvalloc
                0x8181fde8                cfree
                0x8181fdec                malloc_usable_size
                0x8181fe30                mallopt
 .text          0x8181fe88      0x238 common/libcommon.a(download_process.o)
                0x8181ff28                download_process
                0x8182005c                download_boot
 .text          0x818200c0      0x284 common/libcommon.a(env_common.o)
                0x818200c0                env_crc_update
                0x818200ec                env_get_char_memory
                0x8182010c                env_get_char
                0x8182013c                env_get_addr
                0x8182015c                set_default_env
                0x8182019c                env_relocate
                0x818201f4                env_complete
 .text          0x81820344      0x108 common/libcommon.a(env_common_func.o)
                0x81820344                env_get_char_spec
                0x81820368                saveenv
                0x8182038c                env_relocate_spec
                0x818203a8                env_init
 .text          0x8182044c      0x128 common/libcommon.a(env_emmc.o)
                0x8182044c                emmc_env_get_char_spec
                0x81820458                emmc_saveenv
                0x818204c0                emmc_env_relocate_spec
                0x81820558                emmc_env_init
 .text          0x81820574      0x2e4 common/libcommon.a(env_nand.o)
                0x81820574                nand_env_get_char_spec
                0x81820580                nand_env_init
                0x8182059c                writeenv
                0x81820678                nand_saveenv
                0x81820720                readenv
                0x818207fc                nand_env_relocate_spec
 .text          0x81820858      0x1d0 common/libcommon.a(env_sf.o)
                0x81820858                sf_env_get_char_spec
                0x81820864                sf_saveenv
                0x81820964                sf_env_relocate_spec
                0x81820a0c                sf_env_init
 .text          0x81820a28      0x194 common/libcommon.a(exports.o)
                0x81820a2c                get_version
                0x81820a34                jumptable_init
 .text          0x81820bbc      0x34c common/libcommon.a(flash_part.o)
                0x81820e24                find_flash_part
 .text          0x81820f08      0x73c common/libcommon.a(image.o)
                0x81820f30                image_check_hcrc
                0x81820f80                image_check_dcrc
                0x81820fc0                image_multi_count
                0x81820fe0                image_multi_getimg
                0x81821064                getenv_yesno
                0x8182108c                getenv_bootm_low
                0x818210c0                getenv_bootm_size
                0x818210f4                memmove_wd
                0x81821100                genimg_print_size
                0x81821130                get_table_entry_name
                0x8182115c                genimg_get_os_name
                0x81821174                genimg_get_arch_name
                0x8182118c                genimg_get_type_name
                0x818211a4                genimg_get_comp_name
                0x818211bc                image_print_contents
                0x8182133c                get_table_entry_id
                0x81821388                genimg_get_os_id
                0x818213a0                genimg_get_arch_id
                0x818213b8                genimg_get_type_id
                0x818213d0                genimg_get_comp_id
                0x818213e8                genimg_get_format
                0x8182140c                genimg_get_image
                0x81821410                genimg_has_config
                0x81821418                boot_get_ramdisk
 .text          0x81821644     0x1340 common/libcommon.a(main.o)
                0x81821a34                __show_boot_progress
                0x81821a34                show_boot_progress
                0x81821a38                readline_into_buffer
                0x818223b4                readline
                0x818223d0                parse_line
                0x8182245c                run_command
                0x818225f0                main_loop
                0x8182278c                run_command_slave
 .text          0x81822984      0x730 common/libcommon.a(miiphyutil.o)
                0x81822984                miiphy_init
                0x818229a0                miiphy_register
                0x81822a84                miiphy_set_current_dev
                0x81822adc                miiphy_get_current_dev
                0x81822af4                miiphy_read
                0x81822b88                miiphy_write
                0x81822c1c                miiphy_listdev
                0x81822c8c                miiphy_info
                0x81822d1c                miiphy_reset
                0x81822dcc                miiphy_is_1000base_x
                0x81822e10                miiphy_speed
                0x81822f20                miiphy_duplex
                0x8182305c                miiphy_link
 .text          0x818230b4      0x164 common/libcommon.a(stdio.o)
                0x818230b4                stdio_get_list
                0x818230c0                stdio_get_by_name
                0x8182310c                stdio_clone
                0x81823154                stdio_register
                0x81823190                stdio_init
 .text          0x81823218      0x8a0 common/libcommon.a(xyzModem.o)
                0x81823218                CYGACC_COMM_IF_GETC_TIMEOUT
                0x818234ec                CYGACC_COMM_IF_PUTC
                0x818234f4                parse_num
                0x8182361c                xyzModem_stream_open
                0x81823764                xyzModem_stream_read
                0x818239b0                xyzModem_stream_close
                0x81823a04                xyzModem_stream_terminate
                0x81823a98                xyzModem_error
 .text          0x81823ab8        0x8 product/libproduct.a(sample.o)
                0x81823ab8                product_control
 .text          0x81823ac0      0x234 board/hi3516cv300/libhi3516cv300.a(board.o)
                0x81823ac0                get_boot_media
                0x81823ad0                get_text_base
                0x81823adc                boot_flag_init
                0x81823b10                board_init
                0x81823b5c                save_bootdata_to_flash
                0x81823cb0                misc_init_r
                0x81823cd4                dram_init
 .text          0x81823cf4       0x48 lib/libgeneric.a(crc16.o)
                0x81823cf4                cyg_crc16
 .text          0x81823d3c       0xec lib/libgeneric.a(crc32.o)
                0x81823d3c                crc32_no_comp
                0x81823e10                crc32
                0x81823e24                crc32_wd
 .text          0x81823e28      0x2d4 lib/libgeneric.a(display_options.o)
                0x81823e28                display_options
                0x81823e48                print_size
                0x81823f8c                print_buffer
 .text          0x818240fc       0xd0 lib/libgeneric.a(div64.o)
                0x818240fc                __div64_32
 .text          0x818241cc      0x1c0 lib/libgeneric.a(gunzip.o)
                0x818241cc                zalloc
                0x818241dc                zfree
                0x818241e4                zunzip
                0x818242d8                gunzip
 .text          0x8182438c       0x88 lib/libgeneric.a(net_utils.o)
                0x8182438c                string_to_ip
 .text          0x81824414      0x4f0 lib/libgeneric.a(string.o)
                0x81824414                strcpy
                0x8182442c                strncpy
                0x81824450                strcat
                0x81824480                strncat
                0x818244d0                strcmp
                0x818244f8                strncmp
                0x81824534                strchr
                0x81824560                strlen
                0x81824584                strrchr
                0x818245c0                strnlen
                0x818245f0                strdup
                0x81824624                strspn
                0x81824660                strpbrk
                0x818246a4                strtok
                0x8182471c                strsep
                0x81824754                strswab
                0x8182479c                bcopy
                0x818247c4                memmove
                0x81824808                memcmp
                0x8182483c                memscan
                0x81824868                strstr
                0x818248d4                memchr
 .text          0x81824904       0x30 lib/libgeneric.a(time.o)
                0x81824904                udelay
 *fill*         0x81824934        0x4 
 .text          0x81824938      0xe94 lib/libgeneric.a(vsprintf.o)
                0x81824e78                simple_strtoul
                0x81824f2c                simple_strtol
                0x81824f50                ustrtoul
                0x81824fc0                simple_strtoull
                0x81825098                vsprintf
                0x818256b4                sprintf
                0x818256dc                panic
                0x8182572c                ultohstr
 .text          0x818257cc      0x1a8 lib/libgeneric.a(match_table.o)
                0x818257cc                reg2type
                0x818257f8                type2reg
                0x81825824                str2type
                0x81825874                type2str
                0x818258a0                match_reg_to_type
                0x818258cc                match_type_to_reg
                0x818258f8                match_data_to_type
                0x81825948                match_type_to_data
 .text          0x81825974     0x2530 lib/libgeneric.a(zlib.o)
                0x81825974                zcalloc
                0x8182597c                zcfree
                0x81825984                inflate_fast
                0x81825ef0                inflate_table
                0x81826410                inflateReset
                0x818264b0                inflateInit2_
                0x818265b4                inflateInit_
                0x818265c4                inflateEnd
                0x81826648                adler32
                0x81826994                inflate
 .text          0x81827ea4        0x0 lib/libgeneric.a(ctype.o)
 .text          0x81827ea4      0x2d8 lib/hw_dec/libhw_dec.a(hw_decompress.o)
                0x81827ea4                hw_dec_sop_eop_first_set
                0x81827ed4                hw_dec_intr_proc
                0x81827f70                hw_dec_start
                0x81827ff4                hw_dec_wait_finish
                0x81828054                hw_dec_decompress
                0x818280e4                hw_dec_init
                0x81828150                hw_dec_uinit
 .text          0x8182817c      0xdd0 drivers/ddr/libddr.a(ddr_cmd_ctl.o)
                0x8182817c                ddr_cmd_result_display
                0x81828894                ddr_reg_result_display
                0x81828e58                ddr_cmd_get_entry
                0x81828f00                ddr_cmd_training_if
 .text          0x81828f4c        0x0 drivers/ddr/libddr.a(ddr_cmd_loc.o)
 .text          0x81828f4c      0x224 arch/arm/cpu/hi3516cv300/hi3516cv300/libhi3516cv300.a(timer.o)
                0x81828f4c                reset_timer_masked
                0x81828f6c                timer_init
                0x81828fa8                reset_timer
                0x81828fac                get_timer_masked
                0x81828fe0                get_timer
                0x81828ff4                set_timer
                0x81829004                get_ticks
                0x81829014                get_tbclk
                0x81829040                __udelay
                0x818290e0                udelay_masked
 .text          0x81829170      0x1cc arch/arm/lib/libarm.a(bootm.o)
                0x81829170                do_bootm_linux
                0x81829310                ss_jump_to_resume_ext
 .text          0x8182933c        0x4 arch/arm/lib/libarm.a(cache.o)
                0x8182933c                flush_cache
 .text          0x81829340       0x64 arch/arm/lib/libarm.a(process.o)
                0x81829340                add_shutdown
                0x81829374                do_shutdown
 .text          0x818293a4       0x34 arch/arm/lib/libarm.a(reset.o)
                0x818293a4                do_reset
 .text          0x818293d8       0x68 arch/arm/lib/libarm.a(hibernate_arm9.o)
                0x818293d8                restore_processor_state_ext
 .text          0x81829440       0x14 arch/arm/lib/libarm.a(bootm_asm.o)
                0x81829440                call_swsusp_resume
 .text          0x81829454     0x1280 fs/fat/libfat.a(fat.o)
                0x81829ad4                fat_register_device
                0x81829c24                do_fat_read
                0x8182a538                file_fat_detectfs
                0x8182a68c                file_fat_ls
                0x8182a69c                file_fat_read
 .text          0x8182a6d4      0xdac fs/ext2/libext2fs.a(ext2fs.o)
                0x8182a7d8                ext2fs_free_node
                0x8182a7f8                ext2fs_read_file
                0x8182aef8                ext2fs_find_file1
                0x8182b168                ext2fs_find_file
                0x8182b1e0                ext2fs_ls
                0x8182b258                ext2fs_open
                0x8182b2e8                ext2fs_close
                0x8182b390                ext2fs_read
                0x8182b3c0                ext2fs_mount
 .text          0x8182b480      0x210 fs/ext2/libext2fs.a(dev.o)
                0x8182b480                ext2fs_set_blk_dev
                0x8182b4d0                ext2fs_devread
 .text          0x8182b690      0x380 disk/libdisk.a(part.o)
                0x8182b690                get_dev
                0x8182b6f4                dev_print
                0x8182b8f4                init_part
                0x8182b910                get_partition_info
                0x8182b938                print_part
 .text          0x8182ba10      0x4e0 disk/libdisk.a(part_dos.o)
                0x8182be54                test_part_dos
                0x8182bea4                print_part_dos
                0x8182bed0                get_partition_info_dos
 .text          0x8182bef0      0x128 drivers/mmc/libmmc.a(himciv200_dbg_boot_read.o)
                0x8182bf50                emmc_bootmode_read
 .text          0x8182c018      0x324 fs/ext4/libext4.a(unsparse.o)
                0x8182c018                print_header_info
                0x8182c01c                print_chunk_info
                0x8182c020                ext4_unsparse
 .text          0x8182c33c      0x1e0 drivers/mtd/libmtd.a(hifmc_common.o)
                0x8182c33c                hifmc_ip_ver_check
                0x8182c39c                hifmc_dev_type_switch
                0x8182c41c                ulltostr
                0x8182c4bc                debug_register_dump
 .text          0x8182c51c       0xa4 drivers/mtd/libmtd.a(hifmc_hi3516cv300.o)
                0x8182c51c                hifmc_set_fmc_system_clock
                0x8182c560                hifmc_get_fmc_best_2x_clock
 .text          0x8182c5c0     0x11a4 drivers/mtd/nand/libnand.a(nand_util.o)
                0x8182c670                nand_erase_opts
                0x8182ca70                nand_write_yaffs_skip_bad
                0x8182cddc                nand_fill_ecc
                0x8182ce60                nand_read_yaffs_skip_bad
                0x8182d218                nand_write_skip_bad
                0x8182d41c                nand_read_skip_bad
                0x8182d5ac                nand_read_skip_bad_snapshot
 .text          0x8182d764      0xac8 lib/libgeneric.a(vsnprintf.o)
                0x8182d790                vsnrprintf
                0x8182e204                snprintf
 .text          0x8182e22c       0x20 arch/arm/cpu/hi3516cv300/libhi3516cv300.a(cpu.o)
                0x8182e22c                cleanup_before_linux
 .text          0x8182e24c       0xfc arch/arm/lib/libarm.a(cache-cp15.o)
                0x8182e27c                icache_enable
                0x8182e294                icache_disable
                0x8182e2ac                icache_status
                0x8182e2bc                dcache_enable
                0x8182e2d4                dcache_disable
                0x8182e2ec                dcache_status
                0x8182e2fc                enable_mmu
                0x8182e32c                stop_mmu
 .text          0x8182e348      0x12c arch/arm/lib/libarm.a(mmu.o)
                0x8182e348                mmu_pagedir_init
                0x8182e364                mmu_pagedir_cached_range
                0x8182e384                mmu_pagedir_nocached_range
                0x8182e3b4                flush_cache_off
                0x8182e3c8                mmu_startup
                0x8182e400                mmu_turnoff
                0x8182e414                dcache_stop
                0x8182e424                dcache_start
                0x8182e434                dcache_stop_noflush
                0x8182e444                dcache_flush_all
                0x8182e468                dcache_inv_all
 .text          0x8182e474       0x20 /home/yuanda.yu/svndebug/trunk/retarded/Hi3516CV300_SDK_V1.0.2.0/osdrv/opensource/u-boot/u-boot-2010.06/arch/arm/lib/eabi_compat.o
                0x8182e474                raise
                0x8182e490                __aeabi_unwind_cpp_pr0
 .text          0x8182e494       0x1c /opt/hisi-linux/x86-arm/arm-himix100-linux/host_bin/../lib/gcc/arm-linux-uclibceabi/6.3.0/libgcc.a(_ashldi3.o)
                0x8182e494                __ashldi3
                0x8182e494                __aeabi_llsl
 .text          0x8182e4b0       0x1c /opt/hisi-linux/x86-arm/arm-himix100-linux/host_bin/../lib/gcc/arm-linux-uclibceabi/6.3.0/libgcc.a(_ashrdi3.o)
                0x8182e4b0                __ashrdi3
                0x8182e4b0                __aeabi_lasr
 .text          0x8182e4cc      0x240 /opt/hisi-linux/x86-arm/arm-himix100-linux/host_bin/../lib/gcc/arm-linux-uclibceabi/6.3.0/libgcc.a(_divsi3.o)
                0x8182e4cc                __aeabi_idiv
                0x8182e4cc                __divsi3
                0x8182e6ec                __aeabi_idivmod
 .text          0x8182e70c       0x10 /opt/hisi-linux/x86-arm/arm-himix100-linux/host_bin/../lib/gcc/arm-linux-uclibceabi/6.3.0/libgcc.a(_dvmd_lnx.o)
                0x8182e70c                __aeabi_ldiv0
                0x8182e70c                __aeabi_idiv0
 .text          0x8182e71c       0x1c /opt/hisi-linux/x86-arm/arm-himix100-linux/host_bin/../lib/gcc/arm-linux-uclibceabi/6.3.0/libgcc.a(_lshrdi3.o)
                0x8182e71c                __aeabi_llsr
                0x8182e71c                __lshrdi3
 .text          0x8182e738      0x20c /opt/hisi-linux/x86-arm/arm-himix100-linux/host_bin/../lib/gcc/arm-linux-uclibceabi/6.3.0/libgcc.a(_udivsi3.o)
                0x8182e738                __udivsi3
                0x8182e738                __aeabi_uidiv
                0x8182e924                __aeabi_uidivmod

.glue_7         0x8182e944        0x0
 .glue_7        0x8182e944        0x0 linker stubs

.glue_7t        0x8182e944        0x0
 .glue_7t       0x8182e944        0x0 linker stubs

.vfp11_veneer   0x8182e944        0x0
 .vfp11_veneer  0x8182e944        0x0 linker stubs

.v4_bx          0x8182e944        0x0
 .v4_bx         0x8182e944        0x0 linker stubs

.iplt           0x8182e944        0x0
 .iplt          0x8182e944        0x0 arch/arm/cpu/hi3516cv300/start.o

.text.unlikely  0x8182e944      0x2e0
 .text.unlikely
                0x8182e944      0x2e0 common/libcommon.a(cmd_nand.o)
                0x8182ec24                . = ALIGN (0x4)

.rodata         0x8182ec24     0x96cb
 *(SORT(.rodata*))
 .rodata        0x8182ec24       0x80 arch/arm/lib/libarm.a(interrupts.o)
 .rodata        0x8182eca4       0xc3 drivers/mtd/nand/hifmc100/libhifmcv100.a(hifmc_spi_nand_ids.o)
 *fill*         0x8182ed67        0x1 
 .rodata        0x8182ed68      0x1a8 drivers/mtd/spi/hifmc100/libhifmcv100.a(hifmc_spi_nor_ids.o)
 .rodata        0x8182ef10       0x4c common/libcommon.a(cmd_bootm.o)
 .rodata        0x8182ef5c       0x10 common/libcommon.a(cmd_hle_double_system_bootm.o)
 .rodata        0x8182ef6c       0x20 common/libcommon.a(cmd_nand.o)
 .rodata        0x8182ef8c       0x20 common/libcommon.a(xyzModem.o)
 .rodata        0x8182efac      0x400 lib/libgeneric.a(crc32.o)
 .rodata        0x8182f3ac       0x3c lib/libgeneric.a(vsprintf.o)
                0x8182f3bc                hex_asc
 .rodata        0x8182f3e8      0x9cc lib/libgeneric.a(zlib.o)
                0x8182fd8c                z_errmsg
 .rodata        0x8182fdb4       0x10 disk/libdisk.a(part.o)
 .rodata        0x8182fdc4       0x14 drivers/mtd/libmtd.a(hifmc_common.o)
 .rodata        0x8182fdd8       0x20 drivers/mtd/libmtd.a(hifmc_hi3516cv300.o)
 .rodata        0x8182fdf8       0xdb drivers/mtd/nand/hifmc100/libhifmcv100.a(hifmc100.o)
 *fill*         0x8182fed3        0x1 
 .rodata        0x8182fed4       0x1e drivers/usb/gadget/hiudc/libhiudc.a(device_loader.o)
 .rodata        0x8182fef2      0x200 common/libcommon.a(download_process.o)
 .rodata        0x818300f2      0x200 lib/libgeneric.a(crc16.o)
 .rodata        0x818302f2       0x2e arch/arm/lib/libarm.a(board.o)
                0x818302f2                version_string
 .rodata        0x81830320        0x7 net/libnet.a(net.o)
 .rodata        0x81830327        0x9 net/libnet.a(tftp.o)
 .rodata        0x81830330       0x5e drivers/mmc/libmmc.a(himciv200.o)
 .rodata        0x8183038e        0x5 drivers/mtd/nand/libnand.a(nand.o)
 .rodata        0x81830393       0x64 drivers/mtd/nand/libnand.a(nand_base.o)
 .rodata        0x818303f7      0x100 drivers/mtd/nand/libnand.a(nand_ecc.o)
 .rodata        0x818304f7       0x16 drivers/mtd/nand/hifmc100/libhifmcv100.a(hifmc100_os.o)
 .rodata        0x8183050d       0x18 drivers/mtd/spi/hifmc100/libhifmcv100.a(hifmc100_os.o)
 .rodata        0x81830525      0x104 drivers/mtd/spi/hifmc100/libhifmcv100.a(hifmc100.o)
 .rodata        0x81830629        0xf drivers/net/hisfv300/libhisfv300.a(mii-drv.o)
 .rodata        0x81830638       0x53 common/bootss2.a(cmd_bootss2.o)
 .rodata        0x8183068b       0x16 common/libcommon.a(command.o)
 .rodata        0x818306a1        0x6 lib/libgeneric.a(display_options.o)
 .rodata        0x818306a7       0x13 lib/hw_dec/libhw_dec.a(hw_decompress.o)
 .rodata        0x818306ba       0x25 lib/libgeneric.a(vsnprintf.o)
                0x818306ba                hex2ascii_data
 .rodata.str1.1
                0x818306df       0x5b arch/arm/lib/libarm.a(board.o)
 .rodata.str1.1
                0x8183073a      0x264 arch/arm/lib/libarm.a(interrupts.o)
                                0x27b (size before relaxing)
 .rodata.str1.1
                0x8183099e       0x16 net/libnet.a(eth.o)
 .rodata.str1.1
                0x818309b4      0x1bf net/libnet.a(net.o)
                                0x1cf (size before relaxing)
 .rodata.str1.1
                0x81830b73       0x43 net/libnet.a(rarp.o)
 .rodata.str1.1
                0x81830bb6      0x2b4 net/libnet.a(tftp.o)
                                0x2f7 (size before relaxing)
 .rodata.str1.1
                0x81830e6a       0x70 net/libnet.a(bootp.o)
                                 0xa9 (size before relaxing)
 .rodata.str1.1
                0x81830eda      0x119 drivers/mmc/libmmc.a(mmc.o)
                                0x121 (size before relaxing)
 .rodata.str1.1
                0x81830ff3      0x48c drivers/mmc/libmmc.a(himciv200.o)
                                0x495 (size before relaxing)
 .rodata.str1.1
                0x8183147f       0x1b drivers/mtd/nand/libnand.a(nand.o)
 .rodata.str1.1
                0x8183149a      0x2e2 drivers/mtd/nand/libnand.a(nand_base.o)
                                0x2e4 (size before relaxing)
 .rodata.str1.1
                0x8183177c      0x309 drivers/mtd/nand/libnand.a(nand_bbt.o)
 .rodata.str1.1
                0x81831a85      0x360 drivers/mtd/nand/libnand.a(nand_ids.o)
                                0x376 (size before relaxing)
 .rodata.str1.1
                0x81831de5       0x4e drivers/mtd/nand/libnand.a(hinfc_common.o)
                                 0x61 (size before relaxing)
 .rodata.str1.1
                0x81831e33       0xaf drivers/mtd/nand/hifmc100/libhifmcv100.a(hifmc100_os.o)
 .rodata.str1.1
                0x81831ee2      0x392 drivers/mtd/nand/hifmc100/libhifmcv100.a(hifmc100.o)
 .rodata.str1.1
                0x81832274      0x269 drivers/mtd/nand/hifmc100/libhifmcv100.a(hifmc_spi_nand_ids.o)
                                0x29b (size before relaxing)
 .rodata.str1.1
                0x818324dd       0xd2 drivers/mtd/spi/hifmc100/libhifmcv100.a(hifmc100_os.o)
                                 0xef (size before relaxing)
 .rodata.str1.1
                0x818325af      0x549 drivers/mtd/spi/hifmc100/libhifmcv100.a(hifmc_spi_nor_ids.o)
                                0x5ef (size before relaxing)
 .rodata.str1.1
                0x81832af8      0x3d8 drivers/mtd/spi/hifmc100/libhifmcv100.a(hifmc100.o)
                                0x494 (size before relaxing)
 .rodata.str1.1
                0x81832ed0      0x252 drivers/net/hisfv300/libhisfv300.a(net-drv.o)
                                0x263 (size before relaxing)
 .rodata.str1.1
                0x81833122       0x9a drivers/net/hisfv300/libhisfv300.a(mii-drv.o)
 .rodata.str1.1
                0x818331bc       0x32 drivers/net/hisfv300/libhisfv300.a(mdio.o)
                                 0x42 (size before relaxing)
 .rodata.str1.1
                0x818331ee      0x3a6 common/bootss2.a(cmd_bootss2.o)
                                0x3b8 (size before relaxing)
 .rodata.str1.1
                0x81833594       0x3f drivers/usb/gadget/hiudc/libhiudc.a(device_loader.o)
 .rodata.str1.1
                0x818335d3       0x66 drivers/usb/gadget/hiudc/libhiudc.a(device.o)
                                 0x8a (size before relaxing)
 .rodata.str1.1
                0x81833639       0x95 common/libcommon.a(cmd_boot.o)
 .rodata.str1.1
                0x818336ce      0x461 common/libcommon.a(cmd_bootm.o)
                                0x48a (size before relaxing)
 .rodata.str1.1
                0x81833b2f      0x14c common/libcommon.a(cmd_ddr_training_v2.o)
                                0x15b (size before relaxing)
 .rodata.str1.1
                0x81833c7b      0x207 common/libcommon.a(cmd_ext2.o)
                                0x29d (size before relaxing)
 .rodata.str1.1
                0x81833e82      0x1e9 common/libcommon.a(cmd_fat.o)
                                0x24c (size before relaxing)
 .rodata.str1.1
                0x8183406b       0xbc common/libcommon.a(cmd_getinfo.o)
                                 0xfe (size before relaxing)
 .rodata.str1.1
                0x81834127       0x36 common/libcommon.a(cmd_help.o)
                                 0x38 (size before relaxing)
 .rodata.str1.1
                0x8183415d      0x442 common/libcommon.a(cmd_hle_double_system_bootm.o)
                                0x4a9 (size before relaxing)
 .rodata.str1.1
                0x8183459f      0x1b7 common/libcommon.a(cmd_load.o)
                                0x1d0 (size before relaxing)
 .rodata.str1.1
                0x81834756      0x2e2 common/libcommon.a(cmd_mem.o)
                                0x2f9 (size before relaxing)
 .rodata.str1.1
                0x81834a38      0x5b4 common/libcommon.a(cmd_mii.o)
                                0x5dc (size before relaxing)
 .rodata.str1.1
                0x81834fec      0x298 common/libcommon.a(cmd_mmc.o)
                                0x2aa (size before relaxing)
 .rodata.str1.1
                0x81835284      0x926 common/libcommon.a(cmd_nand.o)
                                0x9b0 (size before relaxing)
 .rodata.str1.1
                0x81835baa      0x162 common/libcommon.a(cmd_net.o)
                                0x19b (size before relaxing)
 .rodata.str1.1
                0x81835d0c      0x187 common/libcommon.a(cmd_nvedit.o)
                                0x1e3 (size before relaxing)
 .rodata.str1.1
                0x81835e93      0x266 common/libcommon.a(cmd_sf.o)
                                0x308 (size before relaxing)
 .rodata.str1.1
                0x818360f9       0xff common/libcommon.a(cmd_ugzip.o)
 .rodata.str1.1
                0x818361f8       0x1b common/libcommon.a(cmd_version.o)
                                 0x23 (size before relaxing)
 .rodata.str1.1
                0x81836213       0x70 common/libcommon.a(command.o)
                                 0x8c (size before relaxing)
 .rodata.str1.1
                0x81836283       0x70 common/libcommon.a(console.o)
                                 0x74 (size before relaxing)
 .rodata.str1.1
                0x818362f3       0x32 common/libcommon.a(download_process.o)
 .rodata.str1.1
                0x81836325       0x33 common/libcommon.a(env_common.o)
                                 0x37 (size before relaxing)
 .rodata.str1.1
                0x81836358       0x1a common/libcommon.a(env_common_func.o)
 .rodata.str1.1
                0x81836372       0x2c common/libcommon.a(env_emmc.o)
                                 0x65 (size before relaxing)
 .rodata.str1.1
                0x8183639e       0x69 common/libcommon.a(env_nand.o)
                                 0x74 (size before relaxing)
 .rodata.str1.1
                0x81836407       0xc3 common/libcommon.a(env_sf.o)
                                0x12d (size before relaxing)
 .rodata.str1.1
                0x818364ca       0x87 common/libcommon.a(flash_part.o)
                                 0x8a (size before relaxing)
 .rodata.str1.1
                0x81836551      0x42e common/libcommon.a(image.o)
                                0x4ce (size before relaxing)
 .rodata.str1.1
                0x8183697f       0xc9 common/libcommon.a(main.o)
                                 0xdc (size before relaxing)
 .rodata.str1.1
                0x81836a48      0x1b9 common/libcommon.a(miiphyutil.o)
                                0x1c9 (size before relaxing)
 .rodata.str1.1
                0x81836c01        0x7 common/libcommon.a(stdio.o)
                                 0x1b (size before relaxing)
 .rodata.str1.1
                0x81836c08       0xe3 common/libcommon.a(xyzModem.o)
                                 0xe5 (size before relaxing)
 .rodata.str1.1
                0x81836ceb       0x94 board/hi3516cv300/libhi3516cv300.a(board.o)
                                 0xbd (size before relaxing)
 .rodata.str1.1
                0x81836d7f       0x1a lib/libgeneric.a(display_options.o)
                                 0x43 (size before relaxing)
 .rodata.str1.1
                0x81836d99       0x85 lib/libgeneric.a(gunzip.o)
 .rodata.str1.1
                0x81836e1e       0x21 lib/libgeneric.a(vsprintf.o)
 .rodata.str1.1
                0x81836e3f      0x21c lib/libgeneric.a(zlib.o)
                                0x21d (size before relaxing)
 .rodata.str1.1
                0x8183705b       0x83 lib/hw_dec/libhw_dec.a(hw_decompress.o)
 .rodata.str1.1
                0x818370de      0x460 drivers/ddr/libddr.a(ddr_cmd_ctl.o)
                                0x4a8 (size before relaxing)
 .rodata.str1.1
                0x8183753e       0x42 arch/arm/lib/libarm.a(bootm.o)
                                 0x4b (size before relaxing)
 .rodata.str1.1
                0x81837580       0x44 arch/arm/lib/libarm.a(process.o)
 .rodata.str1.1
                0x818375c4        0xf arch/arm/lib/libarm.a(reset.o)
 .rodata.str1.1
                0x818375d3      0x15c fs/fat/libfat.a(fat.o)
                                0x169 (size before relaxing)
 .rodata.str1.1
                0x8183772f      0x1be fs/ext2/libext2fs.a(ext2fs.o)
 .rodata.str1.1
                0x818378ed       0xdc fs/ext2/libext2fs.a(dev.o)
 .rodata.str1.1
                0x818379c9      0x1af disk/libdisk.a(part.o)
                                0x1e0 (size before relaxing)
 .rodata.str1.1
                0x81837b78       0xe5 disk/libdisk.a(part_dos.o)
                                 0xf1 (size before relaxing)
 .rodata.str1.1
                0x81837c5d       0x6f drivers/mmc/libmmc.a(himciv200_dbg_boot_read.o)
 .rodata.str1.1
                0x81837ccc      0x17a fs/ext4/libext4.a(unsparse.o)
                                0x182 (size before relaxing)
 .rodata.str1.1
                0x81837e46       0x4e drivers/mtd/libmtd.a(hifmc_common.o)
                                 0x63 (size before relaxing)
 .rodata.str1.1
                0x81837e94      0x428 drivers/mtd/nand/libnand.a(nand_util.o)
                                0x44b (size before relaxing)
 .rodata.str1.1
                0x818382bc        0xc lib/libgeneric.a(vsnprintf.o)
                                 0x13 (size before relaxing)
 .rodata.str1.1
                0x818382c8        0xc arch/arm/cpu/hi3516cv300/libhi3516cv300.a(cpu.o)
                                 0x14 (size before relaxing)
 .rodata.str1.1
                0x818382d4       0x1b /home/yuanda.yu/svndebug/trunk/retarded/Hi3516CV300_SDK_V1.0.2.0/osdrv/opensource/u-boot/u-boot-2010.06/arch/arm/lib/eabi_compat.o

.image          0x818382ef     0x30bc
 .image         0x818382ef     0x30bc drivers/ddr/libddr.a(ddr_cmd_loc.o)
                0x818382ef                ddr_training_cmd_start
                0x8183b3ab                ddr_training_cmd_end

.rel.dyn        0x8183b3ac        0x0
 .rel.iplt      0x8183b3ac        0x0 arch/arm/cpu/hi3516cv300/start.o
                0x8183b3ac                . = ALIGN (0x4)

.data           0x8183b3b0     0x6a38
 *(.data)
 .data          0x8183b3b0        0x0 arch/arm/cpu/hi3516cv300/start.o
 .data          0x8183b3b0        0x0 drivers/ddr/ddr_training_impl.o
 .data          0x8183b3b0        0x0 drivers/ddr/ddr_training_ctl.o
 .data          0x8183b3b0        0x0 drivers/ddr/ddr_training_boot.o
 .data          0x8183b3b0        0x0 drivers/ddr/ddr_training_custom.o
 .data          0x8183b3b0        0x0 arch/arm/cpu/hi3516cv300/libhi3516cv300.a(uart.o)
 .data          0x8183b3b0        0x0 arch/arm/cpu/hi3516cv300/libhi3516cv300.a(lowlevel_init_v300.o)
 .data          0x8183b3b0        0x0 arch/arm/cpu/hi3516cv300/libhi3516cv300.a(emmc_boot.o)
 .data          0x8183b3b0        0x0 arch/arm/cpu/hi3516cv300/libhi3516cv300.a(chip.o)
 .data          0x8183b3b0       0x24 arch/arm/lib/libarm.a(board.o)
                0x8183b3b0                init_sequence
 .data          0x8183b3d4        0x0 arch/arm/lib/libarm.a(interrupts.o)
 .data          0x8183b3d4        0x0 arch/arm/lib/libarm.a(memset.o)
 .data          0x8183b3d4        0x0 arch/arm/lib/libarm.a(memcpy.o)
 .data          0x8183b3d4        0x0 net/libnet.a(eth.o)
 .data          0x8183b3d4        0xa net/libnet.a(net.o)
                0x8183b3d4                NetOurVLAN
                0x8183b3d6                NetBcastAddr
                0x8183b3dc                NetOurNativeVLAN
 .data          0x8183b3de        0x0 net/libnet.a(rarp.o)
 *fill*         0x8183b3de        0x2 
 .data          0x8183b3e0       0x1c net/libnet.a(tftp.o)
                0x8183b3ec                upload_addr
                0x8183b3f4                TftpRRQTimeoutCountMax
                0x8183b3f8                TftpRRQTimeoutMSecs
 .data          0x8183b3fc        0x0 net/libnet.a(bootp.o)
 .data          0x8183b3fc       0x50 drivers/mmc/libmmc.a(mmc.o)
                0x8183b3fc                multipliers
                0x8183b43c                fbase
 .data          0x8183b44c        0x0 drivers/mmc/libmmc.a(himciv200.o)
 .data          0x8183b44c        0x4 drivers/mtd/nand/libnand.a(nand.o)
                0x8183b44c                nand_curr_device
 .data          0x8183b450      0x920 drivers/mtd/nand/libnand.a(nand_base.o)
 .data          0x8183bd70      0x10c drivers/mtd/nand/libnand.a(nand_bbt.o)
 .data          0x8183be7c        0x0 drivers/mtd/nand/libnand.a(nand_ecc.o)
 .data          0x8183be7c      0x4f8 drivers/mtd/nand/libnand.a(nand_ids.o)
                0x8183be7c                nand_manuf_ids
                0x8183bf0c                nand_flash_ids
 .data          0x8183c374      0x184 drivers/mtd/nand/libnand.a(hinfc_common.o)
 .data          0x8183c4f8        0x0 drivers/mtd/nand/hifmc100/libhifmcv100.a(hifmc100_os.o)
 .data          0x8183c4f8      0x2b8 drivers/mtd/nand/hifmc100/libhifmcv100.a(hifmc100.o)
 .data          0x8183c7b0     0x1380 drivers/mtd/nand/hifmc100/libhifmcv100.a(hifmc_spi_nand_ids.o)
                0x8183c7b0                hifmc_spi_nand_flash_table
 .data          0x8183db30        0x0 drivers/mtd/spi/libspi_flash.a(spi_compatible.o)
 .data          0x8183db30        0x0 drivers/mtd/spi/hifmc100/libhifmcv100.a(hifmc100_os.o)
 .data          0x8183db30     0x3480 drivers/mtd/spi/hifmc100/libhifmcv100.a(hifmc_spi_nor_ids.o)
 .data          0x81840fb0        0x0 drivers/mtd/spi/hifmc100/libhifmcv100.a(hifmc100.o)
 .data          0x81840fb0        0xc drivers/net/hisfv300/libhisfv300.a(net-drv.o)
                0x81840fb4                D_PHY_ADDR
                0x81840fb5                U_PHY_ADDR
 .data          0x81840fbc        0x0 drivers/net/hisfv300/libhisfv300.a(mii-drv.o)
 .data          0x81840fbc        0x0 drivers/net/hisfv300/libhisfv300.a(ctrl.o)
 .data          0x81840fbc        0x0 drivers/net/hisfv300/libhisfv300.a(glb.o)
 .data          0x81840fbc        0x0 drivers/net/hisfv300/libhisfv300.a(mac.o)
 .data          0x81840fbc        0x0 drivers/net/hisfv300/libhisfv300.a(mdio.o)
 .data          0x81840fbc        0x0 drivers/net/hisfv300/libhisfv300.a(sys.o)
 .data          0x81840fbc        0x8 common/bootss2.a(cmd_bootss2.o)
 .data          0x81840fc4        0x0 drivers/serial/libserial.a(serial_pl01x.o)
 .data          0x81840fc4       0xf2 drivers/usb/gadget/hiudc/libhiudc.a(device_loader.o)
                0x81840fc8                uACK
                0x81840fca                uNAK
 .data          0x818410b6        0x0 drivers/usb/gadget/hiudc/libhiudc.a(device.o)
 .data          0x818410b6        0x0 common/libcommon.a(cmd_boot.o)
 *fill*         0x818410b6        0x2 
 .data          0x818410b8       0x94 common/libcommon.a(cmd_bootm.o)
                0x818410b8                load_addr
 .data          0x8184114c        0x4 common/libcommon.a(cmd_ddr_training_v2.o)
 .data          0x81841150        0x0 common/libcommon.a(cmd_ext2.o)
 .data          0x81841150        0x0 common/libcommon.a(cmd_fat.o)
 .data          0x81841150        0x0 common/libcommon.a(cmd_getinfo.o)
 .data          0x81841150        0x0 common/libcommon.a(cmd_help.o)
 .data          0x81841150        0x0 common/libcommon.a(cmd_hle_double_system_bootm.o)
 .data          0x81841150        0x0 common/libcommon.a(cmd_load.o)
 .data          0x81841150        0x4 common/libcommon.a(cmd_mem.o)
                0x81841150                dp_last_length
 .data          0x81841154      0x2e8 common/libcommon.a(cmd_mii.o)
                0x81841154                reg_0_5_desc_tbl
                0x81841184                desc_and_len_tbl
                0x818411b4                reg_5_desc_tbl
                0x81841244                reg_4_desc_tbl
                0x818412d4                reg_3_desc_tbl
                0x818412f8                reg_2_desc_tbl
                0x81841304                reg_1_desc_tbl
                0x818413c4                reg_0_desc_tbl
 .data          0x8184143c        0x0 common/libcommon.a(cmd_mmc.o)
 .data          0x8184143c       0xcc common/libcommon.a(cmd_nand.o)
 .data          0x81841508        0x0 common/libcommon.a(cmd_net.o)
 .data          0x81841508        0x4 common/libcommon.a(cmd_nvedit.o)
 .data          0x8184150c        0x0 common/libcommon.a(cmd_sf.o)
 .data          0x8184150c        0x0 common/libcommon.a(cmd_ugzip.o)
 .data          0x8184150c        0x0 common/libcommon.a(cmd_version.o)
 .data          0x8184150c        0x0 common/libcommon.a(command.o)
 .data          0x8184150c        0x0 common/libcommon.a(console.o)
 .data          0x8184150c      0x410 common/libcommon.a(dlmalloc.o)
 .data          0x8184191c        0x0 common/libcommon.a(download_process.o)
 .data          0x8184191c       0xc3 common/libcommon.a(env_common.o)
                0x8184191c                default_environment
 *fill*         0x818419df        0x1 
 .data          0x818419e0       0x3c common/libcommon.a(env_common_func.o)
 .data          0x81841a1c        0x4 common/libcommon.a(env_emmc.o)
                0x81841a1c                emmc_env_name_spec
 .data          0x81841a20        0x4 common/libcommon.a(env_nand.o)
                0x81841a20                nand_env_name_spec
 .data          0x81841a24        0x4 common/libcommon.a(env_sf.o)
                0x81841a24                sf_env_name_spec
 .data          0x81841a28        0x0 common/libcommon.a(exports.o)
 .data          0x81841a28        0x0 common/libcommon.a(flash_part.o)
 .data          0x81841a28      0x204 common/libcommon.a(image.o)
 .data          0x81841c2c       0x14 common/libcommon.a(main.o)
 .data          0x81841c40        0x0 common/libcommon.a(miiphyutil.o)
 .data          0x81841c40        0xc common/libcommon.a(stdio.o)
                0x81841c40                stdio_names
 .data          0x81841c4c        0x0 common/libcommon.a(xyzModem.o)
 .data          0x81841c4c        0x0 product/libproduct.a(sample.o)
 .data          0x81841c4c        0x0 board/hi3516cv300/libhi3516cv300.a(board.o)
 .data          0x81841c4c        0x0 lib/libgeneric.a(crc16.o)
 .data          0x81841c4c        0x0 lib/libgeneric.a(crc32.o)
 .data          0x81841c4c        0x0 lib/libgeneric.a(display_options.o)
 .data          0x81841c4c        0x0 lib/libgeneric.a(div64.o)
 .data          0x81841c4c        0x0 lib/libgeneric.a(gunzip.o)
 .data          0x81841c4c        0x0 lib/libgeneric.a(net_utils.o)
 .data          0x81841c4c        0x0 lib/libgeneric.a(string.o)
 .data          0x81841c4c        0x0 lib/libgeneric.a(time.o)
 .data          0x81841c4c        0x0 lib/libgeneric.a(vsprintf.o)
 .data          0x81841c4c        0x0 lib/libgeneric.a(match_table.o)
 .data          0x81841c4c        0x0 lib/libgeneric.a(zlib.o)
 .data          0x81841c4c      0x100 lib/libgeneric.a(ctype.o)
                0x81841c4c                _ctype
 .data          0x81841d4c        0x0 lib/hw_dec/libhw_dec.a(hw_decompress.o)
 .data          0x81841d4c        0x0 drivers/ddr/libddr.a(ddr_cmd_ctl.o)
 .data          0x81841d4c        0x0 drivers/ddr/libddr.a(ddr_cmd_loc.o)
 .data          0x81841d4c        0x0 arch/arm/cpu/hi3516cv300/hi3516cv300/libhi3516cv300.a(timer.o)
 .data          0x81841d4c        0x0 arch/arm/lib/libarm.a(bootm.o)
 .data          0x81841d4c        0x0 arch/arm/lib/libarm.a(cache.o)
 .data          0x81841d4c        0x0 arch/arm/lib/libarm.a(process.o)
 .data          0x81841d4c        0x0 arch/arm/lib/libarm.a(reset.o)
 .data          0x81841d4c        0x0 arch/arm/lib/libarm.a(hibernate_arm9.o)
 .data          0x81841d4c        0x0 arch/arm/lib/libarm.a(bootm_asm.o)
 .data          0x81841d4c        0x0 fs/fat/libfat.a(fat.o)
 .data          0x81841d4c        0x8 fs/ext2/libext2fs.a(ext2fs.o)
                0x81841d4c                indir1_blkno
                0x81841d50                indir2_blkno
 .data          0x81841d54        0x0 fs/ext2/libext2fs.a(dev.o)
 .data          0x81841d54        0x0 disk/libdisk.a(part.o)
 .data          0x81841d54        0x0 disk/libdisk.a(part_dos.o)
 .data          0x81841d54        0x0 drivers/mmc/libmmc.a(himciv200_dbg_boot_read.o)
 .data          0x81841d54        0x0 fs/ext4/libext4.a(unsparse.o)
 .data          0x81841d54        0x2 drivers/mtd/libmtd.a(hifmc_common.o)
 .data          0x81841d56        0x0 drivers/mtd/libmtd.a(hifmc_hi3516cv300.o)
 .data          0x81841d56        0x0 drivers/mtd/nand/libnand.a(nand_util.o)
 .data          0x81841d56        0x0 lib/libgeneric.a(vsnprintf.o)
 *fill*         0x81841d56        0x2 
 .data          0x81841d58       0x90 arch/arm/cpu/hi3516cv300/libhi3516cv300.a(cpu.o)
                0x81841d58                cpu_info
 .data          0x81841de8        0x0 arch/arm/lib/libarm.a(cache-cp15.o)
 .data          0x81841de8        0x0 arch/arm/lib/libarm.a(mmu.o)
 .data          0x81841de8        0x0 /home/yuanda.yu/svndebug/trunk/retarded/Hi3516CV300_SDK_V1.0.2.0/osdrv/opensource/u-boot/u-boot-2010.06/arch/arm/lib/eabi_compat.o
 .data          0x81841de8        0x0 /opt/hisi-linux/x86-arm/arm-himix100-linux/host_bin/../lib/gcc/arm-linux-uclibceabi/6.3.0/libgcc.a(_ashldi3.o)
 .data          0x81841de8        0x0 /opt/hisi-linux/x86-arm/arm-himix100-linux/host_bin/../lib/gcc/arm-linux-uclibceabi/6.3.0/libgcc.a(_ashrdi3.o)
 .data          0x81841de8        0x0 /opt/hisi-linux/x86-arm/arm-himix100-linux/host_bin/../lib/gcc/arm-linux-uclibceabi/6.3.0/libgcc.a(_divsi3.o)
 .data          0x81841de8        0x0 /opt/hisi-linux/x86-arm/arm-himix100-linux/host_bin/../lib/gcc/arm-linux-uclibceabi/6.3.0/libgcc.a(_dvmd_lnx.o)
 .data          0x81841de8        0x0 /opt/hisi-linux/x86-arm/arm-himix100-linux/host_bin/../lib/gcc/arm-linux-uclibceabi/6.3.0/libgcc.a(_lshrdi3.o)
 .data          0x81841de8        0x0 /opt/hisi-linux/x86-arm/arm-himix100-linux/host_bin/../lib/gcc/arm-linux-uclibceabi/6.3.0/libgcc.a(_udivsi3.o)

.igot.plt       0x81841de8        0x0
 .igot.plt      0x81841de8        0x0 arch/arm/cpu/hi3516cv300/start.o
                0x81841de8                . = ALIGN (0x4)

.got
 *(.got)
                0x81841de8                __u_boot_cmd_start = .

.u_boot_cmd     0x81841de8      0x3d8
 *(.u_boot_cmd)
 .u_boot_cmd    0x81841de8       0x18 common/bootss2.a(cmd_bootss2.o)
                0x81841de8                __u_boot_cmd_bootss
 .u_boot_cmd    0x81841e00       0x30 common/libcommon.a(cmd_boot.o)
                0x81841e00                __u_boot_cmd_reset
                0x81841e18                __u_boot_cmd_go
 .u_boot_cmd    0x81841e30       0x18 common/libcommon.a(cmd_bootm.o)
                0x81841e30                __u_boot_cmd_bootm
 .u_boot_cmd    0x81841e48       0x18 common/libcommon.a(cmd_ddr_training_v2.o)
                0x81841e48                __u_boot_cmd_ddr
 .u_boot_cmd    0x81841e60       0x30 common/libcommon.a(cmd_ext2.o)
                0x81841e60                __u_boot_cmd_ext2load
                0x81841e78                __u_boot_cmd_ext2ls
 .u_boot_cmd    0x81841e90       0x48 common/libcommon.a(cmd_fat.o)
                0x81841e90                __u_boot_cmd_fatinfo
                0x81841ea8                __u_boot_cmd_fatls
                0x81841ec0                __u_boot_cmd_fatload
 .u_boot_cmd    0x81841ed8       0x18 common/libcommon.a(cmd_getinfo.o)
                0x81841ed8                __u_boot_cmd_getinfo
 .u_boot_cmd    0x81841ef0       0x30 common/libcommon.a(cmd_help.o)
                0x81841ef0                __u_boot_cmd_question_mark
                0x81841f08                __u_boot_cmd_help
 .u_boot_cmd    0x81841f20       0x18 common/libcommon.a(cmd_hle_double_system_bootm.o)
                0x81841f20                __u_boot_cmd_hle_bootm
 .u_boot_cmd    0x81841f38       0x30 common/libcommon.a(cmd_load.o)
                0x81841f38                __u_boot_cmd_loady
                0x81841f50                __u_boot_cmd_loadb
 .u_boot_cmd    0x81841f68       0xf0 common/libcommon.a(cmd_mem.o)
                0x81841f68                __u_boot_cmd_mtest
                0x81841f80                __u_boot_cmd_loop
                0x81841f98                __u_boot_cmd_base
                0x81841fb0                __u_boot_cmd_crc32
                0x81841fc8                __u_boot_cmd_cmp
                0x81841fe0                __u_boot_cmd_cp
                0x81841ff8                __u_boot_cmd_mw
                0x81842010                __u_boot_cmd_nm
                0x81842028                __u_boot_cmd_mm
                0x81842040                __u_boot_cmd_md
 .u_boot_cmd    0x81842058       0x18 common/libcommon.a(cmd_mii.o)
                0x81842058                __u_boot_cmd_mii
 .u_boot_cmd    0x81842070       0x30 common/libcommon.a(cmd_mmc.o)
                0x81842070                __u_boot_cmd_mmc
                0x81842088                __u_boot_cmd_mmcinfo
 .u_boot_cmd    0x818420a0       0x30 common/libcommon.a(cmd_nand.o)
                0x818420a0                __u_boot_cmd_nboot
                0x818420b8                __u_boot_cmd_nand
 .u_boot_cmd    0x818420d0       0x60 common/libcommon.a(cmd_net.o)
                0x818420d0                __u_boot_cmd_ping
                0x818420e8                __u_boot_cmd_rarpboot
                0x81842100                __u_boot_cmd_tftp
                0x81842118                __u_boot_cmd_bootp
 .u_boot_cmd    0x81842130       0x48 common/libcommon.a(cmd_nvedit.o)
                0x81842130                __u_boot_cmd_setenv
                0x81842148                __u_boot_cmd_printenv
                0x81842160                __u_boot_cmd_saveenv
 .u_boot_cmd    0x81842178       0x18 common/libcommon.a(cmd_sf.o)
                0x81842178                __u_boot_cmd_sf
 .u_boot_cmd    0x81842190       0x18 common/libcommon.a(cmd_ugzip.o)
                0x81842190                __u_boot_cmd_ugzip
 .u_boot_cmd    0x818421a8       0x18 common/libcommon.a(cmd_version.o)
                0x818421a8                __u_boot_cmd_version
                0x818421c0                __u_boot_cmd_end = .
                0x818421c0                . = ALIGN (0x4)
                0x818421c0                __bss_start = .

.bss            0x81842200    0x8b02c
 *(.bss)
 .bss           0x81842200        0x0 arch/arm/cpu/hi3516cv300/start.o
 .bss           0x81842200        0x0 drivers/ddr/ddr_training_impl.o
 .bss           0x81842200        0x0 drivers/ddr/ddr_training_ctl.o
 .bss           0x81842200        0x0 drivers/ddr/ddr_training_boot.o
 .bss           0x81842200        0x0 drivers/ddr/ddr_training_custom.o
 .bss           0x81842200        0x0 arch/arm/cpu/hi3516cv300/libhi3516cv300.a(uart.o)
 .bss           0x81842200        0x0 arch/arm/cpu/hi3516cv300/libhi3516cv300.a(lowlevel_init_v300.o)
 .bss           0x81842200        0x0 arch/arm/cpu/hi3516cv300/libhi3516cv300.a(emmc_boot.o)
 .bss           0x81842200        0x0 arch/arm/cpu/hi3516cv300/libhi3516cv300.a(chip.o)
 .bss           0x81842200        0x4 arch/arm/lib/libarm.a(board.o)
                0x81842200                monitor_flash_len
 .bss           0x81842204        0x0 arch/arm/lib/libarm.a(interrupts.o)
 .bss           0x81842204        0x0 arch/arm/lib/libarm.a(memset.o)
 .bss           0x81842204        0x0 arch/arm/lib/libarm.a(memcpy.o)
 .bss           0x81842204        0x0 net/libnet.a(eth.o)
 .bss           0x81842204     0x25dc net/libnet.a(net.o)
                0x81842204                NetState
                0x81842208                NetPingIP
                0x81842220                NetOurEther
                0x81842228                NetTxPacket
                0x8184222c                NetOurIP
                0x81842230                NetArpWaitPacketIP
                0x81842234                NetOurSubnetMask
                0x81842238                NetOurGatewayIP
                0x8184223c                NetArpWaitReplyIP
                0x81842240                NetArpWaitTimerStart
                0x81842244                NetArpWaitTry
                0x81842248                NetEtherNullAddr
                0x81842254                NetArpWaitPacketMAC
                0x81842258                NetArpWaitTxPacket
                0x8184225c                NetIPID
                0x81842264                NetArpWaitTxPacketSize
                0x81842268                NetRxPacket
                0x8184226c                NetRxPacketLen
                0x81842270                NetServerIP
                0x81842274                NetServerEther
                0x81842280                PktBuf
                0x818440a0                NetRxPackets
                0x818440b0                NetArpWaitPacketBuf
                0x818446d4                NetBootFileXferSize
                0x818446d8                BootFile
                0x81844758                NetBootFileSize
                0x8184475a                NetOurRootPath
                0x8184479a                NetOurHostName
                0x818447ba                NetOurNISDomain
                0x818447dc                NetOurDNSIP
 .bss           0x818447e0        0x4 net/libnet.a(rarp.o)
                0x818447e0                RarpTry
 .bss           0x818447e4       0xbd net/libnet.a(tftp.o)
                0x81844870                upload_size
 *fill*         0x818448a1        0x3 
 .bss           0x818448a4        0x8 net/libnet.a(bootp.o)
                0x818448a4                BootpID
                0x818448a8                BootpTry
 .bss           0x818448ac        0xc drivers/mmc/libmmc.a(mmc.o)
 *fill*         0x818448b8      0x148 
 .bss           0x81844a00    0x50200 drivers/mmc/libmmc.a(himciv200.o)
 .bss           0x81894c00      0x1d0 drivers/mtd/nand/libnand.a(nand.o)
                0x81894c00                nand_info
 .bss           0x81894dd0       0x50 drivers/mtd/nand/libnand.a(nand_base.o)
                0x81894e18                nand_base_oob_resize
                0x81894e1c                nand_base_get_special_flash_type
 .bss           0x81894e20        0x0 drivers/mtd/nand/libnand.a(nand_bbt.o)
 .bss           0x81894e20        0x0 drivers/mtd/nand/libnand.a(nand_ecc.o)
 .bss           0x81894e20        0x0 drivers/mtd/nand/libnand.a(nand_ids.o)
 .bss           0x81894e20        0x8 drivers/mtd/nand/libnand.a(hinfc_common.o)
                0x81894e20                nand_oob_resize
                0x81894e24                nand_get_spl_flash_type
 .bss           0x81894e28      0x138 drivers/mtd/nand/hifmc100/libhifmcv100.a(hifmc100_os.o)
 .bss           0x81894f60        0x0 drivers/mtd/nand/hifmc100/libhifmcv100.a(hifmc100.o)
 .bss           0x81894f60        0x0 drivers/mtd/nand/hifmc100/libhifmcv100.a(hifmc_spi_nand_ids.o)
 .bss           0x81894f60        0x8 drivers/mtd/spi/libspi_flash.a(spi_compatible.o)
 .bss           0x81894f68      0x134 drivers/mtd/spi/hifmc100/libhifmcv100.a(hifmc100_os.o)
 .bss           0x8189509c        0x8 drivers/mtd/spi/hifmc100/libhifmcv100.a(hifmc_spi_nor_ids.o)
                0x8189509c                spiinfo
                0x818950a0                start_up_addr_mode
 .bss           0x818950a4        0x0 drivers/mtd/spi/hifmc100/libhifmcv100.a(hifmc100.o)
 .bss           0x818950a4       0x30 drivers/net/hisfv300/libhisfv300.a(net-drv.o)
                0x818950a4                U_PHY_NAME
                0x818950aa                D_PHY_NAME
 .bss           0x818950d4        0xc drivers/net/hisfv300/libhisfv300.a(mii-drv.o)
 .bss           0x818950e0        0x0 drivers/net/hisfv300/libhisfv300.a(ctrl.o)
 .bss           0x818950e0        0x0 drivers/net/hisfv300/libhisfv300.a(glb.o)
 .bss           0x818950e0        0x0 drivers/net/hisfv300/libhisfv300.a(mac.o)
 .bss           0x818950e0        0x0 drivers/net/hisfv300/libhisfv300.a(mdio.o)
 .bss           0x818950e0        0x0 drivers/net/hisfv300/libhisfv300.a(sys.o)
 .bss           0x818950e0       0x14 common/bootss2.a(cmd_bootss2.o)
                0x818950ec                COMP_SRC_BUF
 .bss           0x818950f4        0x0 drivers/serial/libserial.a(serial_pl01x.o)
 .bss           0x818950f4       0x15 drivers/usb/gadget/hiudc/libhiudc.a(device_loader.o)
                0x818950f4                rx_req
                0x81895100                tx_req
                0x81895104                ep0req
                0x81895108                usb_config_value
 *fill*         0x81895109        0x3 
 .bss           0x8189510c       0x10 drivers/usb/gadget/hiudc/libhiudc.a(device.o)
                0x8189510c                core_if
                0x81895110                pcd
                0x81895114                usb_out_open
                0x81895118                usb_connected
 .bss           0x8189511c        0x0 common/libcommon.a(cmd_boot.o)
 .bss           0x8189511c       0x8c common/libcommon.a(cmd_bootm.o)
 .bss           0x818951a8     0x173c common/libcommon.a(cmd_ddr_training_v2.o)
 .bss           0x818968e4        0x0 common/libcommon.a(cmd_ext2.o)
 .bss           0x818968e4        0x0 common/libcommon.a(cmd_fat.o)
 .bss           0x818968e4        0x0 common/libcommon.a(cmd_getinfo.o)
 .bss           0x818968e4        0x0 common/libcommon.a(cmd_help.o)
 .bss           0x818968e4        0x0 common/libcommon.a(cmd_hle_double_system_bootm.o)
 .bss           0x818968e4       0x60 common/libcommon.a(cmd_load.o)
                0x818968f0                his_pad_count
                0x818968f4                his_pad_char
                0x8189690d                his_eol
                0x81896914                os_data_init
                0x81896924                os_data_char
                0x81896928                his_quote
                0x8189692c                send_ptr
                0x81896930                send_parms
 .bss           0x81896944       0x14 common/libcommon.a(cmd_mem.o)
                0x81896944                dp_last_addr
                0x81896948                dp_last_size
                0x81896950                mm_last_addr
                0x81896954                mm_last_size
 .bss           0x81896958       0x18 common/libcommon.a(cmd_mii.o)
                0x81896958                last_op
                0x8189695c                last_addr_lo
                0x81896960                last_addr_hi
                0x81896964                last_reg_lo
                0x81896968                last_reg_hi
                0x8189696c                last_data
 .bss           0x81896970        0x0 common/libcommon.a(cmd_mmc.o)
 .bss           0x81896970        0x0 common/libcommon.a(cmd_nand.o)
 .bss           0x81896970        0x0 common/libcommon.a(cmd_net.o)
 .bss           0x81896970        0x0 common/libcommon.a(cmd_nvedit.o)
 .bss           0x81896970        0x4 common/libcommon.a(cmd_sf.o)
 .bss           0x81896974        0x0 common/libcommon.a(cmd_ugzip.o)
 .bss           0x81896974        0x0 common/libcommon.a(cmd_version.o)
 .bss           0x81896974      0x600 common/libcommon.a(command.o)
 .bss           0x81896f74        0x8 common/libcommon.a(console.o)
 .bss           0x81896f7c       0x40 common/libcommon.a(dlmalloc.o)
                0x81896f7c                mem_malloc_brk
                0x81896f80                mem_malloc_start
                0x81896f84                mem_malloc_end
 .bss           0x81896fbc      0x400 common/libcommon.a(download_process.o)
 .bss           0x818973bc        0x0 common/libcommon.a(env_common.o)
 .bss           0x818973bc        0xc common/libcommon.a(env_common_func.o)
                0x818973bc                env_cmn_func
                0x818973c0                env_name_spec
                0x818973c4                env_ptr
 .bss           0x818973c8        0x0 common/libcommon.a(env_emmc.o)
 .bss           0x818973c8        0x0 common/libcommon.a(env_nand.o)
 .bss           0x818973c8        0x4 common/libcommon.a(env_sf.o)
 .bss           0x818973cc        0x0 common/libcommon.a(exports.o)
 .bss           0x818973cc        0x0 common/libcommon.a(flash_part.o)
 .bss           0x818973cc        0x0 common/libcommon.a(image.o)
 .bss           0x818973cc     0x5875 common/libcommon.a(main.o)
                0x818973d8                hist_num
                0x818973dc                hist_list
                0x8189742c                hist_lines
                0x8189c440                console_buffer
 *fill*         0x8189cc41        0x3 
 .bss           0x8189cc44        0xc common/libcommon.a(miiphyutil.o)
 .bss           0x8189cc50       0x48 common/libcommon.a(stdio.o)
                0x8189cc8c                stdio_devices
 .bss           0x8189cc98      0x43c common/libcommon.a(xyzModem.o)
 .bss           0x8189d0d4        0x0 product/libproduct.a(sample.o)
 .bss           0x8189d0d4        0x8 board/hi3516cv300/libhi3516cv300.a(board.o)
 .bss           0x8189d0dc        0x0 lib/libgeneric.a(crc16.o)
 .bss           0x8189d0dc        0x0 lib/libgeneric.a(crc32.o)
 .bss           0x8189d0dc        0x0 lib/libgeneric.a(display_options.o)
 .bss           0x8189d0dc        0x0 lib/libgeneric.a(div64.o)
 .bss           0x8189d0dc        0x0 lib/libgeneric.a(gunzip.o)
 .bss           0x8189d0dc        0x0 lib/libgeneric.a(net_utils.o)
 .bss           0x8189d0dc        0x4 lib/libgeneric.a(string.o)
                0x8189d0dc                ___strtok
 .bss           0x8189d0e0        0x0 lib/libgeneric.a(time.o)
 .bss           0x8189d0e0       0x14 lib/libgeneric.a(vsprintf.o)
 .bss           0x8189d0f4        0x0 lib/libgeneric.a(match_table.o)
 .bss           0x8189d0f4        0x0 lib/libgeneric.a(zlib.o)
 .bss           0x8189d0f4        0x0 lib/libgeneric.a(ctype.o)
 .bss           0x8189d0f4       0x14 lib/hw_dec/libhw_dec.a(hw_decompress.o)
                0x8189d0f4                hw_dec_sop
                0x8189d0f8                hw_dec_eop
                0x8189d0fc                hw_dec_cur_blk
                0x8189d100                hw_blk_total_num
                0x8189d104                hw_dec_type
 .bss           0x8189d108        0x0 drivers/ddr/libddr.a(ddr_cmd_ctl.o)
 .bss           0x8189d108        0x0 drivers/ddr/libddr.a(ddr_cmd_loc.o)
 .bss           0x8189d108        0x8 arch/arm/cpu/hi3516cv300/hi3516cv300/libhi3516cv300.a(timer.o)
 .bss           0x8189d110        0x4 arch/arm/lib/libarm.a(bootm.o)
 .bss           0x8189d114        0x0 arch/arm/lib/libarm.a(cache.o)
 .bss           0x8189d114       0x2c arch/arm/lib/libarm.a(process.o)
 .bss           0x8189d140        0x0 arch/arm/lib/libarm.a(reset.o)
 .bss           0x8189d140        0x0 arch/arm/lib/libarm.a(hibernate_arm9.o)
 .bss           0x8189d140        0x0 arch/arm/lib/libarm.a(bootm_asm.o)
 .bss           0x8189d140    0x30054 fs/fat/libfat.a(fat.o)
                0x8189d190                get_vfatname_block
                0x818ad194                do_fat_read_block
                0x818bd194                get_dentfromdir_block
 .bss           0x818cd194       0x20 fs/ext2/libext2fs.a(ext2fs.o)
                0x818cd198                ext2fs_root
                0x818cd19c                indir1_block
                0x818cd1a0                indir1_size
                0x818cd1a4                indir2_block
                0x818cd1a8                indir2_size
                0x818cd1ac                symlinknest
                0x818cd1b0                ext2fs_file
 .bss           0x818cd1b4       0x50 fs/ext2/libext2fs.a(dev.o)
 .bss           0x818cd204        0x0 disk/libdisk.a(part.o)
 .bss           0x818cd204        0x0 disk/libdisk.a(part_dos.o)
 .bss           0x818cd204        0x4 drivers/mmc/libmmc.a(himciv200_dbg_boot_read.o)
 .bss           0x818cd208        0x0 fs/ext4/libext4.a(unsparse.o)
 .bss           0x818cd208       0x1a drivers/mtd/libmtd.a(hifmc_common.o)
                0x818cd208                hifmc_ip_ver
                0x818cd220                hifmc_cs_user
                0x818cd221                hifmc_ip_user
 .bss           0x818cd222        0x0 drivers/mtd/libmtd.a(hifmc_hi3516cv300.o)
 *fill*         0x818cd222        0x2 
 .bss           0x818cd224        0x8 drivers/mtd/nand/libnand.a(nand_util.o)
                0x818cd224                ecc0_flag
                0x818cd228                oobsize_real
 .bss           0x818cd22c        0x0 lib/libgeneric.a(vsnprintf.o)
 .bss           0x818cd22c        0x0 arch/arm/cpu/hi3516cv300/libhi3516cv300.a(cpu.o)
 .bss           0x818cd22c        0x0 arch/arm/lib/libarm.a(cache-cp15.o)
 .bss           0x818cd22c        0x0 arch/arm/lib/libarm.a(mmu.o)
 .bss           0x818cd22c        0x0 /home/yuanda.yu/svndebug/trunk/retarded/Hi3516CV300_SDK_V1.0.2.0/osdrv/opensource/u-boot/u-boot-2010.06/arch/arm/lib/eabi_compat.o
 .bss           0x818cd22c        0x0 /opt/hisi-linux/x86-arm/arm-himix100-linux/host_bin/../lib/gcc/arm-linux-uclibceabi/6.3.0/libgcc.a(_ashldi3.o)
 .bss           0x818cd22c        0x0 /opt/hisi-linux/x86-arm/arm-himix100-linux/host_bin/../lib/gcc/arm-linux-uclibceabi/6.3.0/libgcc.a(_ashrdi3.o)
 .bss           0x818cd22c        0x0 /opt/hisi-linux/x86-arm/arm-himix100-linux/host_bin/../lib/gcc/arm-linux-uclibceabi/6.3.0/libgcc.a(_divsi3.o)
 .bss           0x818cd22c        0x0 /opt/hisi-linux/x86-arm/arm-himix100-linux/host_bin/../lib/gcc/arm-linux-uclibceabi/6.3.0/libgcc.a(_dvmd_lnx.o)
 .bss           0x818cd22c        0x0 /opt/hisi-linux/x86-arm/arm-himix100-linux/host_bin/../lib/gcc/arm-linux-uclibceabi/6.3.0/libgcc.a(_lshrdi3.o)
 .bss           0x818cd22c        0x0 /opt/hisi-linux/x86-arm/arm-himix100-linux/host_bin/../lib/gcc/arm-linux-uclibceabi/6.3.0/libgcc.a(_udivsi3.o)
                0x818cd22c                . = ALIGN (0x4)
                0x818cd22c                _end = .
Address of section .text set to 0x81800000
LOAD arch/arm/cpu/hi3516cv300/start.o
START GROUP
LOAD lib/libgeneric.a
LOAD lib/lzma/liblzma.a
LOAD lib/lzo/liblzo.a
LOAD lib/hw_dec/libhw_dec.a
LOAD arch/arm/cpu/hi3516cv300/libhi3516cv300.a
LOAD drivers/ddr/libddr.a
LOAD arch/arm/cpu/hi3516cv300/hi3516cv300/libhi3516cv300.a
LOAD arch/arm/lib/libarm.a
LOAD fs/cramfs/libcramfs.a
LOAD fs/fat/libfat.a
LOAD fs/fdos/libfdos.a
LOAD fs/jffs2/libjffs2.a
LOAD fs/reiserfs/libreiserfs.a
LOAD fs/ext2/libext2fs.a
LOAD fs/yaffs2/libyaffs2.a
LOAD fs/ubifs/libubifs.a
LOAD net/libnet.a
LOAD disk/libdisk.a
LOAD drivers/bios_emulator/libatibiosemu.a
LOAD drivers/block/libblock.a
LOAD drivers/dma/libdma.a
LOAD drivers/fpga/libfpga.a
LOAD drivers/gpio/libgpio.a
LOAD drivers/hwmon/libhwmon.a
LOAD drivers/i2c/libi2c.a
LOAD drivers/input/libinput.a
LOAD drivers/misc/libmisc.a
LOAD drivers/mmc/libmmc.a
LOAD fs/ext4/libext4.a
LOAD drivers/mtd/libmtd.a
LOAD drivers/mtd/nand/libnand.a
LOAD drivers/mtd/nand/hinfc301/libhinfcv301.a
LOAD drivers/mtd/nand/hinfc504/libhinfcv504.a
LOAD drivers/mtd/nand/hinfc610/libhinfcv610.a
LOAD drivers/mtd/nand/hisnfc100/libhisnfcv100.a
LOAD drivers/mtd/nand/hifmc100/libhifmcv100.a
LOAD drivers/mtd/nand/hifmc100_nand/libhifmc100_nand.a
LOAD drivers/mtd/onenand/libonenand.a
LOAD drivers/mtd/ubi/libubi.a
LOAD drivers/mtd/spi/libspi_flash.a
LOAD drivers/mtd/spi/hisfc350/libhisfcv350.a
LOAD drivers/mtd/spi/hifmc100/libhifmcv100.a
LOAD drivers/mtd/spi/hisfc300new/libhisfcv300new.a
LOAD drivers/net/libnet.a
LOAD drivers/net/phy/libphy.a
LOAD drivers/net/higmacv300/libhigmacv300.a
LOAD drivers/net/hisfv300/libhisfv300.a
LOAD drivers/net/higmac/libhigmac.a
LOAD drivers/net/stmmac/libstmmac.a
LOAD drivers/pci/libpci.a
LOAD drivers/pcmcia/libpcmcia.a
LOAD drivers/power/libpower.a
LOAD drivers/spi/libspi.a
LOAD common/bootss2.a
LOAD drivers/rtc/librtc.a
LOAD drivers/serial/libserial.a
LOAD drivers/twserial/libtws.a
LOAD drivers/usb/gadget/libusb_gadget.a
LOAD drivers/usb/gadget/hiudc/libhiudc.a
LOAD drivers/usb/host/libusb_host.a
LOAD drivers/usb/host/hiusb/libhiusb.a
LOAD drivers/usb/musb/libusb_musb.a
LOAD drivers/usb/phy/libusb_phy.a
LOAD drivers/video/libvideo.a
LOAD drivers/watchdog/libwatchdog.a
LOAD common/libcommon.a
LOAD lib/libfdt/libfdt.a
LOAD api/libapi.a
LOAD post/libpost.a
LOAD product/libproduct.a
LOAD product/hiupdate/libhiupdate.a
LOAD product/hiddrtv200/libhiddrtv200.a
LOAD board/hi3516cv300/libhi3516cv300.a
END GROUP
LOAD /home/yuanda.yu/svndebug/trunk/retarded/Hi3516CV300_SDK_V1.0.2.0/osdrv/opensource/u-boot/u-boot-2010.06/arch/arm/lib/eabi_compat.o
LOAD /opt/hisi-linux/x86-arm/arm-himix100-linux/host_bin/../lib/gcc/arm-linux-uclibceabi/6.3.0/libgcc.a
OUTPUT(u-boot elf32-littlearm)

.ARM.attributes
                0x00000000       0x27
 .ARM.attributes
                0x00000000       0x1b arch/arm/cpu/hi3516cv300/start.o
 .ARM.attributes
                0x0000001b       0x2b drivers/ddr/ddr_training_impl.o
 .ARM.attributes
                0x00000046       0x2b drivers/ddr/ddr_training_ctl.o
 .ARM.attributes
                0x00000071       0x2b drivers/ddr/ddr_training_boot.o
 .ARM.attributes
                0x0000009c       0x2b drivers/ddr/ddr_training_custom.o
 .ARM.attributes
                0x000000c7       0x1b arch/arm/cpu/hi3516cv300/libhi3516cv300.a(uart.o)
 .ARM.attributes
                0x000000e2       0x2b arch/arm/cpu/hi3516cv300/libhi3516cv300.a(lowlevel_init_v300.o)
 .ARM.attributes
                0x0000010d       0x2b arch/arm/cpu/hi3516cv300/libhi3516cv300.a(emmc_boot.o)
 .ARM.attributes
                0x00000138       0x2b arch/arm/cpu/hi3516cv300/libhi3516cv300.a(chip.o)
 .ARM.attributes
                0x00000163       0x2b arch/arm/lib/libarm.a(board.o)
 .ARM.attributes
                0x0000018e       0x2b arch/arm/lib/libarm.a(interrupts.o)
 .ARM.attributes
                0x000001b9       0x1b arch/arm/lib/libarm.a(memset.o)
 .ARM.attributes
                0x000001d4       0x1b arch/arm/lib/libarm.a(memcpy.o)
 .ARM.attributes
                0x000001ef       0x2b net/libnet.a(eth.o)
 .ARM.attributes
                0x0000021a       0x2b net/libnet.a(net.o)
 .ARM.attributes
                0x00000245       0x2b net/libnet.a(rarp.o)
 .ARM.attributes
                0x00000270       0x2b net/libnet.a(tftp.o)
 .ARM.attributes
                0x0000029b       0x2b net/libnet.a(bootp.o)
 .ARM.attributes
                0x000002c6       0x2b drivers/mmc/libmmc.a(mmc.o)
 .ARM.attributes
                0x000002f1       0x2b drivers/mmc/libmmc.a(himciv200.o)
 .ARM.attributes
                0x0000031c       0x2b drivers/mtd/nand/libnand.a(nand.o)
 .ARM.attributes
                0x00000347       0x2b drivers/mtd/nand/libnand.a(nand_base.o)
 .ARM.attributes
                0x00000372       0x2b drivers/mtd/nand/libnand.a(nand_bbt.o)
 .ARM.attributes
                0x0000039d       0x2b drivers/mtd/nand/libnand.a(nand_ecc.o)
 .ARM.attributes
                0x000003c8       0x2b drivers/mtd/nand/libnand.a(nand_ids.o)
 .ARM.attributes
                0x000003f3       0x2b drivers/mtd/nand/libnand.a(hinfc_common.o)
 .ARM.attributes
                0x0000041e       0x2b drivers/mtd/nand/hifmc100/libhifmcv100.a(hifmc100_os.o)
 .ARM.attributes
                0x00000449       0x2b drivers/mtd/nand/hifmc100/libhifmcv100.a(hifmc100.o)
 .ARM.attributes
                0x00000474       0x2b drivers/mtd/nand/hifmc100/libhifmcv100.a(hifmc_spi_nand_ids.o)
 .ARM.attributes
                0x0000049f       0x2b drivers/mtd/spi/libspi_flash.a(spi_compatible.o)
 .ARM.attributes
                0x000004ca       0x2b drivers/mtd/spi/hifmc100/libhifmcv100.a(hifmc100_os.o)
 .ARM.attributes
                0x000004f5       0x2b drivers/mtd/spi/hifmc100/libhifmcv100.a(hifmc_spi_nor_ids.o)
 .ARM.attributes
                0x00000520       0x2b drivers/mtd/spi/hifmc100/libhifmcv100.a(hifmc100.o)
 .ARM.attributes
                0x0000054b       0x2b drivers/net/hisfv300/libhisfv300.a(net-drv.o)
 .ARM.attributes
                0x00000576       0x2b drivers/net/hisfv300/libhisfv300.a(mii-drv.o)
 .ARM.attributes
                0x000005a1       0x2b drivers/net/hisfv300/libhisfv300.a(ctrl.o)
 .ARM.attributes
                0x000005cc       0x2b drivers/net/hisfv300/libhisfv300.a(glb.o)
 .ARM.attributes
                0x000005f7       0x2b drivers/net/hisfv300/libhisfv300.a(mac.o)
 .ARM.attributes
                0x00000622       0x2b drivers/net/hisfv300/libhisfv300.a(mdio.o)
 .ARM.attributes
                0x0000064d       0x2b drivers/net/hisfv300/libhisfv300.a(sys.o)
 .ARM.attributes
                0x00000678       0x2b common/bootss2.a(cmd_bootss2.o)
 .ARM.attributes
                0x000006a3       0x2b drivers/serial/libserial.a(serial_pl01x.o)
 .ARM.attributes
                0x000006ce       0x2b drivers/usb/gadget/hiudc/libhiudc.a(device_loader.o)
 .ARM.attributes
                0x000006f9       0x2b drivers/usb/gadget/hiudc/libhiudc.a(device.o)
 .ARM.attributes
                0x00000724       0x2b common/libcommon.a(cmd_boot.o)
 .ARM.attributes
                0x0000074f       0x2b common/libcommon.a(cmd_bootm.o)
 .ARM.attributes
                0x0000077a       0x2b common/libcommon.a(cmd_ddr_training_v2.o)
 .ARM.attributes
                0x000007a5       0x2b common/libcommon.a(cmd_ext2.o)
 .ARM.attributes
                0x000007d0       0x2b common/libcommon.a(cmd_fat.o)
 .ARM.attributes
                0x000007fb       0x2b common/libcommon.a(cmd_getinfo.o)
 .ARM.attributes
                0x00000826       0x2b common/libcommon.a(cmd_help.o)
 .ARM.attributes
                0x00000851       0x2b common/libcommon.a(cmd_hle_double_system_bootm.o)
 .ARM.attributes
                0x0000087c       0x2b common/libcommon.a(cmd_load.o)
 .ARM.attributes
                0x000008a7       0x2b common/libcommon.a(cmd_mem.o)
 .ARM.attributes
                0x000008d2       0x2b common/libcommon.a(cmd_mii.o)
 .ARM.attributes
                0x000008fd       0x2b common/libcommon.a(cmd_mmc.o)
 .ARM.attributes
                0x00000928       0x2b common/libcommon.a(cmd_nand.o)
 .ARM.attributes
                0x00000953       0x2b common/libcommon.a(cmd_net.o)
 .ARM.attributes
                0x0000097e       0x2b common/libcommon.a(cmd_nvedit.o)
 .ARM.attributes
                0x000009a9       0x2b common/libcommon.a(cmd_sf.o)
 .ARM.attributes
                0x000009d4       0x2b common/libcommon.a(cmd_ugzip.o)
 .ARM.attributes
                0x000009ff       0x2b common/libcommon.a(cmd_version.o)
 .ARM.attributes
                0x00000a2a       0x2b common/libcommon.a(command.o)
 .ARM.attributes
                0x00000a55       0x2b common/libcommon.a(console.o)
 .ARM.attributes
                0x00000a80       0x2b common/libcommon.a(dlmalloc.o)
 .ARM.attributes
                0x00000aab       0x2b common/libcommon.a(download_process.o)
 .ARM.attributes
                0x00000ad6       0x2b common/libcommon.a(env_common.o)
 .ARM.attributes
                0x00000b01       0x2b common/libcommon.a(env_common_func.o)
 .ARM.attributes
                0x00000b2c       0x2b common/libcommon.a(env_emmc.o)
 .ARM.attributes
                0x00000b57       0x2b common/libcommon.a(env_nand.o)
 .ARM.attributes
                0x00000b82       0x2b common/libcommon.a(env_sf.o)
 .ARM.attributes
                0x00000bad       0x2b common/libcommon.a(exports.o)
 .ARM.attributes
                0x00000bd8       0x2b common/libcommon.a(flash_part.o)
 .ARM.attributes
                0x00000c03       0x2b common/libcommon.a(image.o)
 .ARM.attributes
                0x00000c2e       0x2b common/libcommon.a(main.o)
 .ARM.attributes
                0x00000c59       0x2b common/libcommon.a(miiphyutil.o)
 .ARM.attributes
                0x00000c84       0x2b common/libcommon.a(stdio.o)
 .ARM.attributes
                0x00000caf       0x2b common/libcommon.a(xyzModem.o)
 .ARM.attributes
                0x00000cda       0x2b product/libproduct.a(sample.o)
 .ARM.attributes
                0x00000d05       0x2b board/hi3516cv300/libhi3516cv300.a(board.o)
 .ARM.attributes
                0x00000d30       0x2b lib/libgeneric.a(crc16.o)
 .ARM.attributes
                0x00000d5b       0x2b lib/libgeneric.a(crc32.o)
 .ARM.attributes
                0x00000d86       0x2b lib/libgeneric.a(display_options.o)
 .ARM.attributes
                0x00000db1       0x2b lib/libgeneric.a(div64.o)
 .ARM.attributes
                0x00000ddc       0x2b lib/libgeneric.a(gunzip.o)
 .ARM.attributes
                0x00000e07       0x2b lib/libgeneric.a(net_utils.o)
 .ARM.attributes
                0x00000e32       0x2b lib/libgeneric.a(string.o)
 .ARM.attributes
                0x00000e5d       0x2b lib/libgeneric.a(time.o)
 .ARM.attributes
                0x00000e88       0x2b lib/libgeneric.a(vsprintf.o)
 .ARM.attributes
                0x00000eb3       0x2b lib/libgeneric.a(match_table.o)
 .ARM.attributes
                0x00000ede       0x2b lib/libgeneric.a(zlib.o)
 .ARM.attributes
                0x00000f09       0x2b lib/libgeneric.a(ctype.o)
 .ARM.attributes
                0x00000f34       0x2b lib/hw_dec/libhw_dec.a(hw_decompress.o)
 .ARM.attributes
                0x00000f5f       0x2b drivers/ddr/libddr.a(ddr_cmd_ctl.o)
 .ARM.attributes
                0x00000f8a       0x1b drivers/ddr/libddr.a(ddr_cmd_loc.o)
 .ARM.attributes
                0x00000fa5       0x2b arch/arm/cpu/hi3516cv300/hi3516cv300/libhi3516cv300.a(timer.o)
 .ARM.attributes
                0x00000fd0       0x2b arch/arm/lib/libarm.a(bootm.o)
 .ARM.attributes
                0x00000ffb       0x2b arch/arm/lib/libarm.a(cache.o)
 .ARM.attributes
                0x00001026       0x2b arch/arm/lib/libarm.a(process.o)
 .ARM.attributes
                0x00001051       0x2b arch/arm/lib/libarm.a(reset.o)
 .ARM.attributes
                0x0000107c       0x2b arch/arm/lib/libarm.a(hibernate_arm9.o)
 .ARM.attributes
                0x000010a7       0x1b arch/arm/lib/libarm.a(bootm_asm.o)
 .ARM.attributes
                0x000010c2       0x2b fs/fat/libfat.a(fat.o)
 .ARM.attributes
                0x000010ed       0x2b fs/ext2/libext2fs.a(ext2fs.o)
 .ARM.attributes
                0x00001118       0x2b fs/ext2/libext2fs.a(dev.o)
 .ARM.attributes
                0x00001143       0x2b disk/libdisk.a(part.o)
 .ARM.attributes
                0x0000116e       0x2b disk/libdisk.a(part_dos.o)
 .ARM.attributes
                0x00001199       0x2b drivers/mmc/libmmc.a(himciv200_dbg_boot_read.o)
 .ARM.attributes
                0x000011c4       0x2b fs/ext4/libext4.a(unsparse.o)
 .ARM.attributes
                0x000011ef       0x2b drivers/mtd/libmtd.a(hifmc_common.o)
 .ARM.attributes
                0x0000121a       0x2b drivers/mtd/libmtd.a(hifmc_hi3516cv300.o)
 .ARM.attributes
                0x00001245       0x2b drivers/mtd/nand/libnand.a(nand_util.o)
 .ARM.attributes
                0x00001270       0x2b lib/libgeneric.a(vsnprintf.o)
 .ARM.attributes
                0x0000129b       0x2b arch/arm/cpu/hi3516cv300/libhi3516cv300.a(cpu.o)
 .ARM.attributes
                0x000012c6       0x2b arch/arm/lib/libarm.a(cache-cp15.o)
 .ARM.attributes
                0x000012f1       0x1b arch/arm/lib/libarm.a(mmu.o)
 .ARM.attributes
                0x0000130c       0x2b /home/yuanda.yu/svndebug/trunk/retarded/Hi3516CV300_SDK_V1.0.2.0/osdrv/opensource/u-boot/u-boot-2010.06/arch/arm/lib/eabi_compat.o
 .ARM.attributes
                0x00001337       0x18 /opt/hisi-linux/x86-arm/arm-himix100-linux/host_bin/../lib/gcc/arm-linux-uclibceabi/6.3.0/libgcc.a(_ashldi3.o)
 .ARM.attributes
                0x0000134f       0x18 /opt/hisi-linux/x86-arm/arm-himix100-linux/host_bin/../lib/gcc/arm-linux-uclibceabi/6.3.0/libgcc.a(_ashrdi3.o)
 .ARM.attributes
                0x00001367       0x18 /opt/hisi-linux/x86-arm/arm-himix100-linux/host_bin/../lib/gcc/arm-linux-uclibceabi/6.3.0/libgcc.a(_divsi3.o)
 .ARM.attributes
                0x0000137f       0x14 /opt/hisi-linux/x86-arm/arm-himix100-linux/host_bin/../lib/gcc/arm-linux-uclibceabi/6.3.0/libgcc.a(_dvmd_lnx.o)
 .ARM.attributes
                0x00001393       0x18 /opt/hisi-linux/x86-arm/arm-himix100-linux/host_bin/../lib/gcc/arm-linux-uclibceabi/6.3.0/libgcc.a(_lshrdi3.o)
 .ARM.attributes
                0x000013ab       0x18 /opt/hisi-linux/x86-arm/arm-himix100-linux/host_bin/../lib/gcc/arm-linux-uclibceabi/6.3.0/libgcc.a(_udivsi3.o)

.comment        0x00000000       0x78
 .comment       0x00000000       0x3d drivers/ddr/ddr_training_impl.o
                                 0x3e (size before relaxing)
 .comment       0x0000003d       0x3e drivers/ddr/ddr_training_ctl.o
 .comment       0x0000003d       0x3e drivers/ddr/ddr_training_boot.o
 .comment       0x0000003d       0x3e drivers/ddr/ddr_training_custom.o
 .comment       0x0000003d       0x3e arch/arm/cpu/hi3516cv300/libhi3516cv300.a(lowlevel_init_v300.o)
 .comment       0x0000003d       0x3e arch/arm/cpu/hi3516cv300/libhi3516cv300.a(emmc_boot.o)
 .comment       0x0000003d       0x3e arch/arm/cpu/hi3516cv300/libhi3516cv300.a(chip.o)
 .comment       0x0000003d       0x3e arch/arm/lib/libarm.a(board.o)
 .comment       0x0000003d       0x3e arch/arm/lib/libarm.a(interrupts.o)
 .comment       0x0000003d       0x3e net/libnet.a(eth.o)
 .comment       0x0000003d       0x3e net/libnet.a(net.o)
 .comment       0x0000003d       0x3e net/libnet.a(rarp.o)
 .comment       0x0000003d       0x3e net/libnet.a(tftp.o)
 .comment       0x0000003d       0x3e net/libnet.a(bootp.o)
 .comment       0x0000003d       0x3e drivers/mmc/libmmc.a(mmc.o)
 .comment       0x0000003d       0x3e drivers/mmc/libmmc.a(himciv200.o)
 .comment       0x0000003d       0x3e drivers/mtd/nand/libnand.a(nand.o)
 .comment       0x0000003d       0x3e drivers/mtd/nand/libnand.a(nand_base.o)
 .comment       0x0000003d       0x3e drivers/mtd/nand/libnand.a(nand_bbt.o)
 .comment       0x0000003d       0x3e drivers/mtd/nand/libnand.a(nand_ecc.o)
 .comment       0x0000003d       0x3e drivers/mtd/nand/libnand.a(nand_ids.o)
 .comment       0x0000003d       0x3e drivers/mtd/nand/libnand.a(hinfc_common.o)
 .comment       0x0000003d       0x3e drivers/mtd/nand/hifmc100/libhifmcv100.a(hifmc100_os.o)
 .comment       0x0000003d       0x3e drivers/mtd/nand/hifmc100/libhifmcv100.a(hifmc100.o)
 .comment       0x0000003d       0x3e drivers/mtd/nand/hifmc100/libhifmcv100.a(hifmc_spi_nand_ids.o)
 .comment       0x0000003d       0x3e drivers/mtd/spi/libspi_flash.a(spi_compatible.o)
 .comment       0x0000003d       0x3e drivers/mtd/spi/hifmc100/libhifmcv100.a(hifmc100_os.o)
 .comment       0x0000003d       0x3e drivers/mtd/spi/hifmc100/libhifmcv100.a(hifmc_spi_nor_ids.o)
 .comment       0x0000003d       0x3e drivers/mtd/spi/hifmc100/libhifmcv100.a(hifmc100.o)
 .comment       0x0000003d       0x3e drivers/net/hisfv300/libhisfv300.a(net-drv.o)
 .comment       0x0000003d       0x3e drivers/net/hisfv300/libhisfv300.a(mii-drv.o)
 .comment       0x0000003d       0x3e drivers/net/hisfv300/libhisfv300.a(ctrl.o)
 .comment       0x0000003d       0x3e drivers/net/hisfv300/libhisfv300.a(glb.o)
 .comment       0x0000003d       0x3e drivers/net/hisfv300/libhisfv300.a(mac.o)
 .comment       0x0000003d       0x3e drivers/net/hisfv300/libhisfv300.a(mdio.o)
 .comment       0x0000003d       0x3e drivers/net/hisfv300/libhisfv300.a(sys.o)
 .comment       0x0000003d       0x3b common/bootss2.a(cmd_bootss2.o)
                                 0x3c (size before relaxing)
 .comment       0x00000078       0x3e drivers/serial/libserial.a(serial_pl01x.o)
 .comment       0x00000078       0x3e drivers/usb/gadget/hiudc/libhiudc.a(device_loader.o)
 .comment       0x00000078       0x3e drivers/usb/gadget/hiudc/libhiudc.a(device.o)
 .comment       0x00000078       0x3e common/libcommon.a(cmd_boot.o)
 .comment       0x00000078       0x3e common/libcommon.a(cmd_bootm.o)
 .comment       0x00000078       0x3e common/libcommon.a(cmd_ddr_training_v2.o)
 .comment       0x00000078       0x3e common/libcommon.a(cmd_ext2.o)
 .comment       0x00000078       0x3e common/libcommon.a(cmd_fat.o)
 .comment       0x00000078       0x3e common/libcommon.a(cmd_getinfo.o)
 .comment       0x00000078       0x3e common/libcommon.a(cmd_help.o)
 .comment       0x00000078       0x3e common/libcommon.a(cmd_hle_double_system_bootm.o)
 .comment       0x00000078       0x3e common/libcommon.a(cmd_load.o)
 .comment       0x00000078       0x3e common/libcommon.a(cmd_mem.o)
 .comment       0x00000078       0x3e common/libcommon.a(cmd_mii.o)
 .comment       0x00000078       0x3e common/libcommon.a(cmd_mmc.o)
 .comment       0x00000078       0x3e common/libcommon.a(cmd_nand.o)
 .comment       0x00000078       0x3e common/libcommon.a(cmd_net.o)
 .comment       0x00000078       0x3e common/libcommon.a(cmd_nvedit.o)
 .comment       0x00000078       0x3e common/libcommon.a(cmd_sf.o)
 .comment       0x00000078       0x3e common/libcommon.a(cmd_ugzip.o)
 .comment       0x00000078       0x3e common/libcommon.a(cmd_version.o)
 .comment       0x00000078       0x3e common/libcommon.a(command.o)
 .comment       0x00000078       0x3e common/libcommon.a(console.o)
 .comment       0x00000078       0x3e common/libcommon.a(dlmalloc.o)
 .comment       0x00000078       0x3e common/libcommon.a(download_process.o)
 .comment       0x00000078       0x3e common/libcommon.a(env_common.o)
 .comment       0x00000078       0x3e common/libcommon.a(env_common_func.o)
 .comment       0x00000078       0x3e common/libcommon.a(env_emmc.o)
 .comment       0x00000078       0x3e common/libcommon.a(env_nand.o)
 .comment       0x00000078       0x3e common/libcommon.a(env_sf.o)
 .comment       0x00000078       0x3e common/libcommon.a(exports.o)
 .comment       0x00000078       0x3e common/libcommon.a(flash_part.o)
 .comment       0x00000078       0x3e common/libcommon.a(image.o)
 .comment       0x00000078       0x3e common/libcommon.a(main.o)
 .comment       0x00000078       0x3e common/libcommon.a(miiphyutil.o)
 .comment       0x00000078       0x3e common/libcommon.a(stdio.o)
 .comment       0x00000078       0x3e common/libcommon.a(xyzModem.o)
 .comment       0x00000078       0x3e product/libproduct.a(sample.o)
 .comment       0x00000078       0x3e board/hi3516cv300/libhi3516cv300.a(board.o)
 .comment       0x00000078       0x3e lib/libgeneric.a(crc16.o)
 .comment       0x00000078       0x3e lib/libgeneric.a(crc32.o)
 .comment       0x00000078       0x3e lib/libgeneric.a(display_options.o)
 .comment       0x00000078       0x3e lib/libgeneric.a(div64.o)
 .comment       0x00000078       0x3e lib/libgeneric.a(gunzip.o)
 .comment       0x00000078       0x3e lib/libgeneric.a(net_utils.o)
 .comment       0x00000078       0x3e lib/libgeneric.a(string.o)
 .comment       0x00000078       0x3e lib/libgeneric.a(time.o)
 .comment       0x00000078       0x3e lib/libgeneric.a(vsprintf.o)
 .comment       0x00000078       0x3e lib/libgeneric.a(match_table.o)
 .comment       0x00000078       0x3e lib/libgeneric.a(zlib.o)
 .comment       0x00000078       0x3e lib/libgeneric.a(ctype.o)
 .comment       0x00000078       0x3e lib/hw_dec/libhw_dec.a(hw_decompress.o)
 .comment       0x00000078       0x3e drivers/ddr/libddr.a(ddr_cmd_ctl.o)
 .comment       0x00000078       0x3e arch/arm/cpu/hi3516cv300/hi3516cv300/libhi3516cv300.a(timer.o)
 .comment       0x00000078       0x3e arch/arm/lib/libarm.a(bootm.o)
 .comment       0x00000078       0x3e arch/arm/lib/libarm.a(cache.o)
 .comment       0x00000078       0x3e arch/arm/lib/libarm.a(process.o)
 .comment       0x00000078       0x3e arch/arm/lib/libarm.a(reset.o)
 .comment       0x00000078       0x3e arch/arm/lib/libarm.a(hibernate_arm9.o)
 .comment       0x00000078       0x3e fs/fat/libfat.a(fat.o)
 .comment       0x00000078       0x3e fs/ext2/libext2fs.a(ext2fs.o)
 .comment       0x00000078       0x3e fs/ext2/libext2fs.a(dev.o)
 .comment       0x00000078       0x3e disk/libdisk.a(part.o)
 .comment       0x00000078       0x3e disk/libdisk.a(part_dos.o)
 .comment       0x00000078       0x3e drivers/mmc/libmmc.a(himciv200_dbg_boot_read.o)
 .comment       0x00000078       0x3e fs/ext4/libext4.a(unsparse.o)
 .comment       0x00000078       0x3e drivers/mtd/libmtd.a(hifmc_common.o)
 .comment       0x00000078       0x3e drivers/mtd/libmtd.a(hifmc_hi3516cv300.o)
 .comment       0x00000078       0x3e drivers/mtd/nand/libnand.a(nand_util.o)
 .comment       0x00000078       0x3e lib/libgeneric.a(vsnprintf.o)
 .comment       0x00000078       0x3e arch/arm/cpu/hi3516cv300/libhi3516cv300.a(cpu.o)
 .comment       0x00000078       0x3e arch/arm/lib/libarm.a(cache-cp15.o)
 .comment       0x00000078       0x3e /home/yuanda.yu/svndebug/trunk/retarded/Hi3516CV300_SDK_V1.0.2.0/osdrv/opensource/u-boot/u-boot-2010.06/arch/arm/lib/eabi_compat.o

.note.GNU-stack
                0x00000000        0x0
 .note.GNU-stack
                0x00000000        0x0 drivers/ddr/ddr_training_impl.o
 .note.GNU-stack
                0x00000000        0x0 drivers/ddr/ddr_training_ctl.o
 .note.GNU-stack
                0x00000000        0x0 drivers/ddr/ddr_training_boot.o
 .note.GNU-stack
                0x00000000        0x0 drivers/ddr/ddr_training_custom.o
 .note.GNU-stack
                0x00000000        0x0 arch/arm/cpu/hi3516cv300/libhi3516cv300.a(lowlevel_init_v300.o)
 .note.GNU-stack
                0x00000000        0x0 arch/arm/cpu/hi3516cv300/libhi3516cv300.a(emmc_boot.o)
 .note.GNU-stack
                0x00000000        0x0 arch/arm/cpu/hi3516cv300/libhi3516cv300.a(chip.o)
 .note.GNU-stack
                0x00000000        0x0 arch/arm/lib/libarm.a(board.o)
 .note.GNU-stack
                0x00000000        0x0 arch/arm/lib/libarm.a(interrupts.o)
 .note.GNU-stack
                0x00000000        0x0 net/libnet.a(eth.o)
 .note.GNU-stack
                0x00000000        0x0 net/libnet.a(net.o)
 .note.GNU-stack
                0x00000000        0x0 net/libnet.a(rarp.o)
 .note.GNU-stack
                0x00000000        0x0 net/libnet.a(tftp.o)
 .note.GNU-stack
                0x00000000        0x0 net/libnet.a(bootp.o)
 .note.GNU-stack
                0x00000000        0x0 drivers/mmc/libmmc.a(mmc.o)
 .note.GNU-stack
                0x00000000        0x0 drivers/mmc/libmmc.a(himciv200.o)
 .note.GNU-stack
                0x00000000        0x0 drivers/mtd/nand/libnand.a(nand.o)
 .note.GNU-stack
                0x00000000        0x0 drivers/mtd/nand/libnand.a(nand_base.o)
 .note.GNU-stack
                0x00000000        0x0 drivers/mtd/nand/libnand.a(nand_bbt.o)
 .note.GNU-stack
                0x00000000        0x0 drivers/mtd/nand/libnand.a(nand_ecc.o)
 .note.GNU-stack
                0x00000000        0x0 drivers/mtd/nand/libnand.a(nand_ids.o)
 .note.GNU-stack
                0x00000000        0x0 drivers/mtd/nand/libnand.a(hinfc_common.o)
 .note.GNU-stack
                0x00000000        0x0 drivers/mtd/nand/hifmc100/libhifmcv100.a(hifmc100_os.o)
 .note.GNU-stack
                0x00000000        0x0 drivers/mtd/nand/hifmc100/libhifmcv100.a(hifmc100.o)
 .note.GNU-stack
                0x00000000        0x0 drivers/mtd/nand/hifmc100/libhifmcv100.a(hifmc_spi_nand_ids.o)
 .note.GNU-stack
                0x00000000        0x0 drivers/mtd/spi/libspi_flash.a(spi_compatible.o)
 .note.GNU-stack
                0x00000000        0x0 drivers/mtd/spi/hifmc100/libhifmcv100.a(hifmc100_os.o)
 .note.GNU-stack
                0x00000000        0x0 drivers/mtd/spi/hifmc100/libhifmcv100.a(hifmc_spi_nor_ids.o)
 .note.GNU-stack
                0x00000000        0x0 drivers/mtd/spi/hifmc100/libhifmcv100.a(hifmc100.o)
 .note.GNU-stack
                0x00000000        0x0 drivers/net/hisfv300/libhisfv300.a(net-drv.o)
 .note.GNU-stack
                0x00000000        0x0 drivers/net/hisfv300/libhisfv300.a(mii-drv.o)
 .note.GNU-stack
                0x00000000        0x0 drivers/net/hisfv300/libhisfv300.a(ctrl.o)
 .note.GNU-stack
                0x00000000        0x0 drivers/net/hisfv300/libhisfv300.a(glb.o)
 .note.GNU-stack
                0x00000000        0x0 drivers/net/hisfv300/libhisfv300.a(mac.o)
 .note.GNU-stack
                0x00000000        0x0 drivers/net/hisfv300/libhisfv300.a(mdio.o)
 .note.GNU-stack
                0x00000000        0x0 drivers/net/hisfv300/libhisfv300.a(sys.o)
 .note.GNU-stack
                0x00000000        0x0 common/bootss2.a(cmd_bootss2.o)
 .note.GNU-stack
                0x00000000        0x0 drivers/serial/libserial.a(serial_pl01x.o)
 .note.GNU-stack
                0x00000000        0x0 drivers/usb/gadget/hiudc/libhiudc.a(device_loader.o)
 .note.GNU-stack
                0x00000000        0x0 drivers/usb/gadget/hiudc/libhiudc.a(device.o)
 .note.GNU-stack
                0x00000000        0x0 common/libcommon.a(cmd_boot.o)
 .note.GNU-stack
                0x00000000        0x0 common/libcommon.a(cmd_bootm.o)
 .note.GNU-stack
                0x00000000        0x0 common/libcommon.a(cmd_ddr_training_v2.o)
 .note.GNU-stack
                0x00000000        0x0 common/libcommon.a(cmd_ext2.o)
 .note.GNU-stack
                0x00000000        0x0 common/libcommon.a(cmd_fat.o)
 .note.GNU-stack
                0x00000000        0x0 common/libcommon.a(cmd_getinfo.o)
 .note.GNU-stack
                0x00000000        0x0 common/libcommon.a(cmd_help.o)
 .note.GNU-stack
                0x00000000        0x0 common/libcommon.a(cmd_hle_double_system_bootm.o)
 .note.GNU-stack
                0x00000000        0x0 common/libcommon.a(cmd_load.o)
 .note.GNU-stack
                0x00000000        0x0 common/libcommon.a(cmd_mem.o)
 .note.GNU-stack
                0x00000000        0x0 common/libcommon.a(cmd_mii.o)
 .note.GNU-stack
                0x00000000        0x0 common/libcommon.a(cmd_mmc.o)
 .note.GNU-stack
                0x00000000        0x0 common/libcommon.a(cmd_nand.o)
 .note.GNU-stack
                0x00000000        0x0 common/libcommon.a(cmd_net.o)
 .note.GNU-stack
                0x00000000        0x0 common/libcommon.a(cmd_nvedit.o)
 .note.GNU-stack
                0x00000000        0x0 common/libcommon.a(cmd_sf.o)
 .note.GNU-stack
                0x00000000        0x0 common/libcommon.a(cmd_ugzip.o)
 .note.GNU-stack
                0x00000000        0x0 common/libcommon.a(cmd_version.o)
 .note.GNU-stack
                0x00000000        0x0 common/libcommon.a(command.o)
 .note.GNU-stack
                0x00000000        0x0 common/libcommon.a(console.o)
 .note.GNU-stack
                0x00000000        0x0 common/libcommon.a(dlmalloc.o)
 .note.GNU-stack
                0x00000000        0x0 common/libcommon.a(download_process.o)
 .note.GNU-stack
                0x00000000        0x0 common/libcommon.a(env_common.o)
 .note.GNU-stack
                0x00000000        0x0 common/libcommon.a(env_common_func.o)
 .note.GNU-stack
                0x00000000        0x0 common/libcommon.a(env_emmc.o)
 .note.GNU-stack
                0x00000000        0x0 common/libcommon.a(env_nand.o)
 .note.GNU-stack
                0x00000000        0x0 common/libcommon.a(env_sf.o)
 .note.GNU-stack
                0x00000000        0x0 common/libcommon.a(exports.o)
 .note.GNU-stack
                0x00000000        0x0 common/libcommon.a(flash_part.o)
 .note.GNU-stack
                0x00000000        0x0 common/libcommon.a(image.o)
 .note.GNU-stack
                0x00000000        0x0 common/libcommon.a(main.o)
 .note.GNU-stack
                0x00000000        0x0 common/libcommon.a(miiphyutil.o)
 .note.GNU-stack
                0x00000000        0x0 common/libcommon.a(stdio.o)
 .note.GNU-stack
                0x00000000        0x0 common/libcommon.a(xyzModem.o)
 .note.GNU-stack
                0x00000000        0x0 product/libproduct.a(sample.o)
 .note.GNU-stack
                0x00000000        0x0 board/hi3516cv300/libhi3516cv300.a(board.o)
 .note.GNU-stack
                0x00000000        0x0 lib/libgeneric.a(crc16.o)
 .note.GNU-stack
                0x00000000        0x0 lib/libgeneric.a(crc32.o)
 .note.GNU-stack
                0x00000000        0x0 lib/libgeneric.a(display_options.o)
 .note.GNU-stack
                0x00000000        0x0 lib/libgeneric.a(div64.o)
 .note.GNU-stack
                0x00000000        0x0 lib/libgeneric.a(gunzip.o)
 .note.GNU-stack
                0x00000000        0x0 lib/libgeneric.a(net_utils.o)
 .note.GNU-stack
                0x00000000        0x0 lib/libgeneric.a(string.o)
 .note.GNU-stack
                0x00000000        0x0 lib/libgeneric.a(time.o)
 .note.GNU-stack
                0x00000000        0x0 lib/libgeneric.a(vsprintf.o)
 .note.GNU-stack
                0x00000000        0x0 lib/libgeneric.a(match_table.o)
 .note.GNU-stack
                0x00000000        0x0 lib/libgeneric.a(zlib.o)
 .note.GNU-stack
                0x00000000        0x0 lib/libgeneric.a(ctype.o)
 .note.GNU-stack
                0x00000000        0x0 lib/hw_dec/libhw_dec.a(hw_decompress.o)
 .note.GNU-stack
                0x00000000        0x0 drivers/ddr/libddr.a(ddr_cmd_ctl.o)
 .note.GNU-stack
                0x00000000        0x0 arch/arm/cpu/hi3516cv300/hi3516cv300/libhi3516cv300.a(timer.o)
 .note.GNU-stack
                0x00000000        0x0 arch/arm/lib/libarm.a(bootm.o)
 .note.GNU-stack
                0x00000000        0x0 arch/arm/lib/libarm.a(cache.o)
 .note.GNU-stack
                0x00000000        0x0 arch/arm/lib/libarm.a(process.o)
 .note.GNU-stack
                0x00000000        0x0 arch/arm/lib/libarm.a(reset.o)
 .note.GNU-stack
                0x00000000        0x0 arch/arm/lib/libarm.a(hibernate_arm9.o)
 .note.GNU-stack
                0x00000000        0x0 fs/fat/libfat.a(fat.o)
 .note.GNU-stack
                0x00000000        0x0 fs/ext2/libext2fs.a(ext2fs.o)
 .note.GNU-stack
                0x00000000        0x0 fs/ext2/libext2fs.a(dev.o)
 .note.GNU-stack
                0x00000000        0x0 disk/libdisk.a(part.o)
 .note.GNU-stack
                0x00000000        0x0 disk/libdisk.a(part_dos.o)
 .note.GNU-stack
                0x00000000        0x0 drivers/mmc/libmmc.a(himciv200_dbg_boot_read.o)
 .note.GNU-stack
                0x00000000        0x0 fs/ext4/libext4.a(unsparse.o)
 .note.GNU-stack
                0x00000000        0x0 drivers/mtd/libmtd.a(hifmc_common.o)
 .note.GNU-stack
                0x00000000        0x0 drivers/mtd/libmtd.a(hifmc_hi3516cv300.o)
 .note.GNU-stack
                0x00000000        0x0 drivers/mtd/nand/libnand.a(nand_util.o)
 .note.GNU-stack
                0x00000000        0x0 lib/libgeneric.a(vsnprintf.o)
 .note.GNU-stack
                0x00000000        0x0 arch/arm/cpu/hi3516cv300/libhi3516cv300.a(cpu.o)
 .note.GNU-stack
                0x00000000        0x0 arch/arm/lib/libarm.a(cache-cp15.o)
 .note.GNU-stack
                0x00000000        0x0 /home/yuanda.yu/svndebug/trunk/retarded/Hi3516CV300_SDK_V1.0.2.0/osdrv/opensource/u-boot/u-boot-2010.06/arch/arm/lib/eabi_compat.o
 .note.GNU-stack
                0x00000000        0x0 /opt/hisi-linux/x86-arm/arm-himix100-linux/host_bin/../lib/gcc/arm-linux-uclibceabi/6.3.0/libgcc.a(_ashldi3.o)
 .note.GNU-stack
                0x00000000        0x0 /opt/hisi-linux/x86-arm/arm-himix100-linux/host_bin/../lib/gcc/arm-linux-uclibceabi/6.3.0/libgcc.a(_ashrdi3.o)
 .note.GNU-stack
                0x00000000        0x0 /opt/hisi-linux/x86-arm/arm-himix100-linux/host_bin/../lib/gcc/arm-linux-uclibceabi/6.3.0/libgcc.a(_divsi3.o)
 .note.GNU-stack
                0x00000000        0x0 /opt/hisi-linux/x86-arm/arm-himix100-linux/host_bin/../lib/gcc/arm-linux-uclibceabi/6.3.0/libgcc.a(_dvmd_lnx.o)
 .note.GNU-stack
                0x00000000        0x0 /opt/hisi-linux/x86-arm/arm-himix100-linux/host_bin/../lib/gcc/arm-linux-uclibceabi/6.3.0/libgcc.a(_lshrdi3.o)
 .note.GNU-stack
                0x00000000        0x0 /opt/hisi-linux/x86-arm/arm-himix100-linux/host_bin/../lib/gcc/arm-linux-uclibceabi/6.3.0/libgcc.a(_udivsi3.o)

.debug_line     0x00000000    0x19563
 .debug_line    0x00000000      0x19c arch/arm/cpu/hi3516cv300/start.o
 .debug_line    0x0000019c      0x617 drivers/ddr/ddr_training_impl.o
 .debug_line    0x000007b3       0xb1 drivers/ddr/ddr_training_ctl.o
 .debug_line    0x00000864       0xa3 drivers/ddr/ddr_training_boot.o
 .debug_line    0x00000907       0x45 drivers/ddr/ddr_training_custom.o
 .debug_line    0x0000094c       0x6c arch/arm/cpu/hi3516cv300/libhi3516cv300.a(uart.o)
 .debug_line    0x000009b8      0x148 arch/arm/cpu/hi3516cv300/libhi3516cv300.a(lowlevel_init_v300.o)
 .debug_line    0x00000b00      0x1ba arch/arm/cpu/hi3516cv300/libhi3516cv300.a(emmc_boot.o)
 .debug_line    0x00000cba       0x47 arch/arm/cpu/hi3516cv300/libhi3516cv300.a(chip.o)
 .debug_line    0x00000d01      0x433 arch/arm/lib/libarm.a(board.o)
 .debug_line    0x00001134      0x2d8 arch/arm/lib/libarm.a(interrupts.o)
 .debug_line    0x0000140c       0x6e arch/arm/lib/libarm.a(memset.o)
 .debug_line    0x0000147a       0x93 arch/arm/lib/libarm.a(memcpy.o)
 .debug_line    0x0000150d      0x26c net/libnet.a(eth.o)
 .debug_line    0x00001779      0x7c7 net/libnet.a(net.o)
 .debug_line    0x00001f40      0x26d net/libnet.a(rarp.o)
 .debug_line    0x000021ad      0x499 net/libnet.a(tftp.o)
 .debug_line    0x00002646      0x459 net/libnet.a(bootp.o)
 .debug_line    0x00002a9f      0x6d3 drivers/mmc/libmmc.a(mmc.o)
 .debug_line    0x00003172      0x5da drivers/mmc/libmmc.a(himciv200.o)
 .debug_line    0x0000374c      0x307 drivers/mtd/nand/libnand.a(nand.o)
 .debug_line    0x00003a53      0xf10 drivers/mtd/nand/libnand.a(nand_base.o)
 .debug_line    0x00004963      0x744 drivers/mtd/nand/libnand.a(nand_bbt.o)
 .debug_line    0x000050a7      0x32f drivers/mtd/nand/libnand.a(nand_ecc.o)
 .debug_line    0x000053d6      0x281 drivers/mtd/nand/libnand.a(nand_ids.o)
 .debug_line    0x00005657      0x33a drivers/mtd/nand/libnand.a(hinfc_common.o)
 .debug_line    0x00005991      0x368 drivers/mtd/nand/hifmc100/libhifmcv100.a(hifmc100_os.o)
 .debug_line    0x00005cf9      0x71b drivers/mtd/nand/hifmc100/libhifmcv100.a(hifmc100.o)
 .debug_line    0x00006414      0x4de drivers/mtd/nand/hifmc100/libhifmcv100.a(hifmc_spi_nand_ids.o)
 .debug_line    0x000068f2      0x2db drivers/mtd/spi/libspi_flash.a(spi_compatible.o)
 .debug_line    0x00006bcd      0x389 drivers/mtd/spi/hifmc100/libhifmcv100.a(hifmc100_os.o)
 .debug_line    0x00006f56      0x7bb drivers/mtd/spi/hifmc100/libhifmcv100.a(hifmc_spi_nor_ids.o)
 .debug_line    0x00007711      0x61a drivers/mtd/spi/hifmc100/libhifmcv100.a(hifmc100.o)
 .debug_line    0x00007d2b      0x452 drivers/net/hisfv300/libhisfv300.a(net-drv.o)
 .debug_line    0x0000817d      0x2ab drivers/net/hisfv300/libhisfv300.a(mii-drv.o)
 .debug_line    0x00008428      0x249 drivers/net/hisfv300/libhisfv300.a(ctrl.o)
 .debug_line    0x00008671      0x267 drivers/net/hisfv300/libhisfv300.a(glb.o)
 .debug_line    0x000088d8      0x25c drivers/net/hisfv300/libhisfv300.a(mac.o)
 .debug_line    0x00008b34      0x26f drivers/net/hisfv300/libhisfv300.a(mdio.o)
 .debug_line    0x00008da3      0x26d drivers/net/hisfv300/libhisfv300.a(sys.o)
 .debug_line    0x00009010      0x5ad common/bootss2.a(cmd_bootss2.o)
 .debug_line    0x000095bd      0x2d3 drivers/serial/libserial.a(serial_pl01x.o)
 .debug_line    0x00009890      0x357 drivers/usb/gadget/hiudc/libhiudc.a(device_loader.o)
 .debug_line    0x00009be7      0xb20 drivers/usb/gadget/hiudc/libhiudc.a(device.o)
 .debug_line    0x0000a707      0x221 common/libcommon.a(cmd_boot.o)
 .debug_line    0x0000a928      0x51b common/libcommon.a(cmd_bootm.o)
 .debug_line    0x0000ae43      0x2f5 common/libcommon.a(cmd_ddr_training_v2.o)
 .debug_line    0x0000b138      0x2cf common/libcommon.a(cmd_ext2.o)
 .debug_line    0x0000b407      0x2a8 common/libcommon.a(cmd_fat.o)
 .debug_line    0x0000b6af      0x2f1 common/libcommon.a(cmd_getinfo.o)
 .debug_line    0x0000b9a0      0x211 common/libcommon.a(cmd_help.o)
 .debug_line    0x0000bbb1      0x2cf common/libcommon.a(cmd_hle_double_system_bootm.o)
 .debug_line    0x0000be80      0x439 common/libcommon.a(cmd_load.o)
 .debug_line    0x0000c2b9      0x491 common/libcommon.a(cmd_mem.o)
 .debug_line    0x0000c74a      0x3a7 common/libcommon.a(cmd_mii.o)
 .debug_line    0x0000caf1      0x303 common/libcommon.a(cmd_mmc.o)
 .debug_line    0x0000cdf4      0x68a common/libcommon.a(cmd_nand.o)
 .debug_line    0x0000d47e      0x29b common/libcommon.a(cmd_net.o)
 .debug_line    0x0000d719      0x4d3 common/libcommon.a(cmd_nvedit.o)
 .debug_line    0x0000dbec      0x461 common/libcommon.a(cmd_sf.o)
 .debug_line    0x0000e04d      0x231 common/libcommon.a(cmd_ugzip.o)
 .debug_line    0x0000e27e      0x211 common/libcommon.a(cmd_version.o)
 .debug_line    0x0000e48f      0x40b common/libcommon.a(command.o)
 .debug_line    0x0000e89a      0x3fd common/libcommon.a(console.o)
 .debug_line    0x0000ec97      0x61d common/libcommon.a(dlmalloc.o)
 .debug_line    0x0000f2b4      0x32e common/libcommon.a(download_process.o)
 .debug_line    0x0000f5e2      0x340 common/libcommon.a(env_common.o)
 .debug_line    0x0000f922      0x266 common/libcommon.a(env_common_func.o)
 .debug_line    0x0000fb88      0x306 common/libcommon.a(env_emmc.o)
 .debug_line    0x0000fe8e      0x435 common/libcommon.a(env_nand.o)
 .debug_line    0x000102c3      0x3ba common/libcommon.a(env_sf.o)
 .debug_line    0x0001067d      0x278 common/libcommon.a(exports.o)
 .debug_line    0x000108f5      0x34a common/libcommon.a(flash_part.o)
 .debug_line    0x00010c3f      0x49c common/libcommon.a(image.o)
 .debug_line    0x000110db      0x5cf common/libcommon.a(main.o)
 .debug_line    0x000116aa      0x3af common/libcommon.a(miiphyutil.o)
 .debug_line    0x00011a59      0x2d5 common/libcommon.a(stdio.o)
 .debug_line    0x00011d2e      0x450 common/libcommon.a(xyzModem.o)
 .debug_line    0x0001217e      0x20d product/libproduct.a(sample.o)
 .debug_line    0x0001238b      0x2dc board/hi3516cv300/libhi3516cv300.a(board.o)
 .debug_line    0x00012667      0x149 lib/libgeneric.a(crc16.o)
 .debug_line    0x000127b0      0x310 lib/libgeneric.a(crc32.o)
 .debug_line    0x00012ac0      0x2a6 lib/libgeneric.a(display_options.o)
 .debug_line    0x00012d66      0x155 lib/libgeneric.a(div64.o)
 .debug_line    0x00012ebb      0x2f8 lib/libgeneric.a(gunzip.o)
 .debug_line    0x000131b3      0x2c7 lib/libgeneric.a(net_utils.o)
 .debug_line    0x0001347a      0x31c lib/libgeneric.a(string.o)
 .debug_line    0x00013796      0x21a lib/libgeneric.a(time.o)
 .debug_line    0x000139b0      0x68a lib/libgeneric.a(vsprintf.o)
 .debug_line    0x0001403a      0x171 lib/libgeneric.a(match_table.o)
 .debug_line    0x000141ab      0xb38 lib/libgeneric.a(zlib.o)
 .debug_line    0x00014ce3       0xa9 lib/libgeneric.a(ctype.o)
 .debug_line    0x00014d8c      0x30a lib/hw_dec/libhw_dec.a(hw_decompress.o)
 .debug_line    0x00015096      0x3e7 drivers/ddr/libddr.a(ddr_cmd_ctl.o)
 .debug_line    0x0001547d      0x27c arch/arm/cpu/hi3516cv300/hi3516cv300/libhi3516cv300.a(timer.o)
 .debug_line    0x000156f9      0x294 arch/arm/lib/libarm.a(bootm.o)
 .debug_line    0x0001598d      0x209 arch/arm/lib/libarm.a(cache.o)
 .debug_line    0x00015b96      0x21e arch/arm/lib/libarm.a(process.o)
 .debug_line    0x00015db4      0x20f arch/arm/lib/libarm.a(reset.o)
 .debug_line    0x00015fc3       0x4d arch/arm/lib/libarm.a(hibernate_arm9.o)
 .debug_line    0x00016010       0x3f arch/arm/lib/libarm.a(bootm_asm.o)
 .debug_line    0x0001604f      0x5a0 fs/fat/libfat.a(fat.o)
 .debug_line    0x000165ef      0x4c4 fs/ext2/libext2fs.a(ext2fs.o)
 .debug_line    0x00016ab3      0x272 fs/ext2/libext2fs.a(dev.o)
 .debug_line    0x00016d25      0x2d0 disk/libdisk.a(part.o)
 .debug_line    0x00016ff5      0x2ff disk/libdisk.a(part_dos.o)
 .debug_line    0x000172f4      0x26f drivers/mmc/libmmc.a(himciv200_dbg_boot_read.o)
 .debug_line    0x00017563      0x312 fs/ext4/libext4.a(unsparse.o)
 .debug_line    0x00017875      0x298 drivers/mtd/libmtd.a(hifmc_common.o)
 .debug_line    0x00017b0d      0x26a drivers/mtd/libmtd.a(hifmc_hi3516cv300.o)
 .debug_line    0x00017d77      0x6a3 drivers/mtd/nand/libnand.a(nand_util.o)
 .debug_line    0x0001841a      0x4a0 lib/libgeneric.a(vsnprintf.o)
 .debug_line    0x000188ba      0x231 arch/arm/cpu/hi3516cv300/libhi3516cv300.a(cpu.o)
 .debug_line    0x00018aeb      0x2ad arch/arm/lib/libarm.a(cache-cp15.o)
 .debug_line    0x00018d98       0x8c arch/arm/lib/libarm.a(mmu.o)
 .debug_line    0x00018e24      0x214 /home/yuanda.yu/svndebug/trunk/retarded/Hi3516CV300_SDK_V1.0.2.0/osdrv/opensource/u-boot/u-boot-2010.06/arch/arm/lib/eabi_compat.o
 .debug_line    0x00019038       0xd3 /opt/hisi-linux/x86-arm/arm-himix100-linux/host_bin/../lib/gcc/arm-linux-uclibceabi/6.3.0/libgcc.a(_ashldi3.o)
 .debug_line    0x0001910b       0xd3 /opt/hisi-linux/x86-arm/arm-himix100-linux/host_bin/../lib/gcc/arm-linux-uclibceabi/6.3.0/libgcc.a(_ashrdi3.o)
 .debug_line    0x000191de       0xf6 /opt/hisi-linux/x86-arm/arm-himix100-linux/host_bin/../lib/gcc/arm-linux-uclibceabi/6.3.0/libgcc.a(_divsi3.o)
 .debug_line    0x000192d4       0xd2 /opt/hisi-linux/x86-arm/arm-himix100-linux/host_bin/../lib/gcc/arm-linux-uclibceabi/6.3.0/libgcc.a(_dvmd_lnx.o)
 .debug_line    0x000193a6       0xd3 /opt/hisi-linux/x86-arm/arm-himix100-linux/host_bin/../lib/gcc/arm-linux-uclibceabi/6.3.0/libgcc.a(_lshrdi3.o)
 .debug_line    0x00019479       0xea /opt/hisi-linux/x86-arm/arm-himix100-linux/host_bin/../lib/gcc/arm-linux-uclibceabi/6.3.0/libgcc.a(_udivsi3.o)

.debug_info     0x00000000    0x716ee
 .debug_info    0x00000000       0x26 arch/arm/cpu/hi3516cv300/start.o
 .debug_info    0x00000026     0x253d drivers/ddr/ddr_training_impl.o
 .debug_info    0x00002563      0x4cc drivers/ddr/ddr_training_ctl.o
 .debug_info    0x00002a2f      0x330 drivers/ddr/ddr_training_boot.o
 .debug_info    0x00002d5f       0x6e drivers/ddr/ddr_training_custom.o
 .debug_info    0x00002dcd       0x26 arch/arm/cpu/hi3516cv300/libhi3516cv300.a(uart.o)
 .debug_info    0x00002df3      0x55f arch/arm/cpu/hi3516cv300/libhi3516cv300.a(lowlevel_init_v300.o)
 .debug_info    0x00003352      0xcf5 arch/arm/cpu/hi3516cv300/libhi3516cv300.a(emmc_boot.o)
 .debug_info    0x00004047       0xca arch/arm/cpu/hi3516cv300/libhi3516cv300.a(chip.o)
 .debug_info    0x00004111     0x14ef arch/arm/lib/libarm.a(board.o)
 .debug_info    0x00005600      0x8f1 arch/arm/lib/libarm.a(interrupts.o)
 .debug_info    0x00005ef1       0x26 arch/arm/lib/libarm.a(memset.o)
 .debug_info    0x00005f17       0x26 arch/arm/lib/libarm.a(memcpy.o)
 .debug_info    0x00005f3d      0x866 net/libnet.a(eth.o)
 .debug_info    0x000067a3     0x26bf net/libnet.a(net.o)
 .debug_info    0x00008e62      0x7c1 net/libnet.a(rarp.o)
 .debug_info    0x00009623     0x12b6 net/libnet.a(tftp.o)
 .debug_info    0x0000a8d9     0x128d net/libnet.a(bootp.o)
 .debug_info    0x0000bb66     0x2029 drivers/mmc/libmmc.a(mmc.o)
 .debug_info    0x0000db8f     0x2500 drivers/mmc/libmmc.a(himciv200.o)
 .debug_info    0x0001008f     0x1684 drivers/mtd/nand/libnand.a(nand.o)
 .debug_info    0x00011713     0x59f6 drivers/mtd/nand/libnand.a(nand_base.o)
 .debug_info    0x00017109     0x2aa4 drivers/mtd/nand/libnand.a(nand_bbt.o)
 .debug_info    0x00019bad      0xd65 drivers/mtd/nand/libnand.a(nand_ecc.o)
 .debug_info    0x0001a912      0x574 drivers/mtd/nand/libnand.a(nand_ids.o)
 .debug_info    0x0001ae86     0x1a13 drivers/mtd/nand/libnand.a(hinfc_common.o)
 .debug_info    0x0001c899     0x1bf4 drivers/mtd/nand/hifmc100/libhifmcv100.a(hifmc100_os.o)
 .debug_info    0x0001e48d     0x2c96 drivers/mtd/nand/hifmc100/libhifmcv100.a(hifmc100.o)
 .debug_info    0x00021123     0x2873 drivers/mtd/nand/hifmc100/libhifmcv100.a(hifmc_spi_nand_ids.o)
 .debug_info    0x00023996      0x85a drivers/mtd/spi/libspi_flash.a(spi_compatible.o)
 .debug_info    0x000241f0      0xf32 drivers/mtd/spi/hifmc100/libhifmcv100.a(hifmc100_os.o)
 .debug_info    0x00025122     0x28f3 drivers/mtd/spi/hifmc100/libhifmcv100.a(hifmc_spi_nor_ids.o)
 .debug_info    0x00027a15     0x1c3a drivers/mtd/spi/hifmc100/libhifmcv100.a(hifmc100.o)
 .debug_info    0x0002964f     0x19aa drivers/net/hisfv300/libhisfv300.a(net-drv.o)
 .debug_info    0x0002aff9      0x99e drivers/net/hisfv300/libhisfv300.a(mii-drv.o)
 .debug_info    0x0002b997      0x9c3 drivers/net/hisfv300/libhisfv300.a(ctrl.o)
 .debug_info    0x0002c35a      0xca5 drivers/net/hisfv300/libhisfv300.a(glb.o)
 .debug_info    0x0002cfff      0xee4 drivers/net/hisfv300/libhisfv300.a(mac.o)
 .debug_info    0x0002dee3      0x8a5 drivers/net/hisfv300/libhisfv300.a(mdio.o)
 .debug_info    0x0002e788      0x7d9 drivers/net/hisfv300/libhisfv300.a(sys.o)
 .debug_info    0x0002ef61     0x2baa common/bootss2.a(cmd_bootss2.o)
 .debug_info    0x00031b0b      0x718 drivers/serial/libserial.a(serial_pl01x.o)
 .debug_info    0x00032223      0xe1b drivers/usb/gadget/hiudc/libhiudc.a(device_loader.o)
 .debug_info    0x0003303e     0x48b2 drivers/usb/gadget/hiudc/libhiudc.a(device.o)
 .debug_info    0x000378f0      0x675 common/libcommon.a(cmd_boot.o)
 .debug_info    0x00037f65     0x1e10 common/libcommon.a(cmd_bootm.o)
 .debug_info    0x00039d75      0xbfd common/libcommon.a(cmd_ddr_training_v2.o)
 .debug_info    0x0003a972      0xd51 common/libcommon.a(cmd_ext2.o)
 .debug_info    0x0003b6c3      0xcc5 common/libcommon.a(cmd_fat.o)
 .debug_info    0x0003c388      0x99b common/libcommon.a(cmd_getinfo.o)
 .debug_info    0x0003cd23      0x563 common/libcommon.a(cmd_help.o)
 .debug_info    0x0003d286      0xe6d common/libcommon.a(cmd_hle_double_system_bootm.o)
 .debug_info    0x0003e0f3     0x12f9 common/libcommon.a(cmd_load.o)
 .debug_info    0x0003f3ec     0x164c common/libcommon.a(cmd_mem.o)
 .debug_info    0x00040a38      0xf67 common/libcommon.a(cmd_mii.o)
 .debug_info    0x0004199f     0x1541 common/libcommon.a(cmd_mmc.o)
 .debug_info    0x00042ee0     0x2f1e common/libcommon.a(cmd_nand.o)
 .debug_info    0x00045dfe      0xc78 common/libcommon.a(cmd_net.o)
 .debug_info    0x00046a76     0x11f4 common/libcommon.a(cmd_nvedit.o)
 .debug_info    0x00047c6a     0x1209 common/libcommon.a(cmd_sf.o)
 .debug_info    0x00048e73      0x71d common/libcommon.a(cmd_ugzip.o)
 .debug_info    0x00049590      0x554 common/libcommon.a(cmd_version.o)
 .debug_info    0x00049ae4     0x10f0 common/libcommon.a(command.o)
 .debug_info    0x0004abd4     0x12d4 common/libcommon.a(console.o)
 .debug_info    0x0004bea8     0x12fe common/libcommon.a(dlmalloc.o)
 .debug_info    0x0004d1a6      0x820 common/libcommon.a(download_process.o)
 .debug_info    0x0004d9c6      0xabe common/libcommon.a(env_common.o)
 .debug_info    0x0004e484      0x67b common/libcommon.a(env_common_func.o)
 .debug_info    0x0004eaff      0xc8a common/libcommon.a(env_emmc.o)
 .debug_info    0x0004f789     0x1370 common/libcommon.a(env_nand.o)
 .debug_info    0x00050af9      0xcef common/libcommon.a(env_sf.o)
 .debug_info    0x000517e8      0x6f9 common/libcommon.a(exports.o)
 .debug_info    0x00051ee1     0x100a common/libcommon.a(flash_part.o)
 .debug_info    0x00052eeb     0x1b71 common/libcommon.a(image.o)
 .debug_info    0x00054a5c     0x1d61 common/libcommon.a(main.o)
 .debug_info    0x000567bd     0x112e common/libcommon.a(miiphyutil.o)
 .debug_info    0x000578eb      0xb94 common/libcommon.a(stdio.o)
 .debug_info    0x0005847f      0xff3 common/libcommon.a(xyzModem.o)
 .debug_info    0x00059472      0x4da product/libproduct.a(sample.o)
 .debug_info    0x0005994c      0xf06 board/hi3516cv300/libhi3516cv300.a(board.o)
 .debug_info    0x0005a852      0x113 lib/libgeneric.a(crc16.o)
 .debug_info    0x0005a965      0x6e6 lib/libgeneric.a(crc32.o)
 .debug_info    0x0005b04b      0x7e6 lib/libgeneric.a(display_options.o)
 .debug_info    0x0005b831      0x13f lib/libgeneric.a(div64.o)
 .debug_info    0x0005b970      0x95a lib/libgeneric.a(gunzip.o)
 .debug_info    0x0005c2ca      0x57f lib/libgeneric.a(net_utils.o)
 .debug_info    0x0005c849      0x8e5 lib/libgeneric.a(string.o)
 .debug_info    0x0005d12e      0x4ff lib/libgeneric.a(time.o)
 .debug_info    0x0005d62d     0x12bb lib/libgeneric.a(vsprintf.o)
 .debug_info    0x0005e8e8      0x427 lib/libgeneric.a(match_table.o)
 .debug_info    0x0005ed0f     0x1810 lib/libgeneric.a(zlib.o)
 .debug_info    0x0006051f       0x4f lib/libgeneric.a(ctype.o)
 .debug_info    0x0006056e      0xde4 lib/hw_dec/libhw_dec.a(hw_decompress.o)
 .debug_info    0x00061352     0x1497 drivers/ddr/libddr.a(ddr_cmd_ctl.o)
 .debug_info    0x000627e9      0x81b arch/arm/cpu/hi3516cv300/hi3516cv300/libhi3516cv300.a(timer.o)
 .debug_info    0x00063004      0xf9b arch/arm/lib/libarm.a(bootm.o)
 .debug_info    0x00063f9f      0x4de arch/arm/lib/libarm.a(cache.o)
 .debug_info    0x0006447d      0x567 arch/arm/lib/libarm.a(process.o)
 .debug_info    0x000649e4      0x597 arch/arm/lib/libarm.a(reset.o)
 .debug_info    0x00064f7b      0x15f arch/arm/lib/libarm.a(hibernate_arm9.o)
 .debug_info    0x000650da       0x26 arch/arm/lib/libarm.a(bootm_asm.o)
 .debug_info    0x00065100     0x1f38 fs/fat/libfat.a(fat.o)
 .debug_info    0x00067038     0x1801 fs/ext2/libext2fs.a(ext2fs.o)
 .debug_info    0x00068839      0x917 fs/ext2/libext2fs.a(dev.o)
 .debug_info    0x00069150      0xc15 disk/libdisk.a(part.o)
 .debug_info    0x00069d65      0xc99 disk/libdisk.a(part_dos.o)
 .debug_info    0x0006a9fe      0x77b drivers/mmc/libmmc.a(himciv200_dbg_boot_read.o)
 .debug_info    0x0006b179      0xc73 fs/ext4/libext4.a(unsparse.o)
 .debug_info    0x0006bdec      0x740 drivers/mtd/libmtd.a(hifmc_common.o)
 .debug_info    0x0006c52c      0x646 drivers/mtd/libmtd.a(hifmc_hi3516cv300.o)
 .debug_info    0x0006cb72     0x25cd drivers/mtd/nand/libnand.a(nand_util.o)
 .debug_info    0x0006f13f     0x10c5 lib/libgeneric.a(vsnprintf.o)
 .debug_info    0x00070204      0x5e9 arch/arm/cpu/hi3516cv300/libhi3516cv300.a(cpu.o)
 .debug_info    0x000707ed      0x8e5 arch/arm/lib/libarm.a(cache-cp15.o)
 .debug_info    0x000710d2       0x26 arch/arm/lib/libarm.a(mmu.o)
 .debug_info    0x000710f8      0x512 /home/yuanda.yu/svndebug/trunk/retarded/Hi3516CV300_SDK_V1.0.2.0/osdrv/opensource/u-boot/u-boot-2010.06/arch/arm/lib/eabi_compat.o
 .debug_info    0x0007160a       0x26 /opt/hisi-linux/x86-arm/arm-himix100-linux/host_bin/../lib/gcc/arm-linux-uclibceabi/6.3.0/libgcc.a(_ashldi3.o)
 .debug_info    0x00071630       0x26 /opt/hisi-linux/x86-arm/arm-himix100-linux/host_bin/../lib/gcc/arm-linux-uclibceabi/6.3.0/libgcc.a(_ashrdi3.o)
 .debug_info    0x00071656       0x26 /opt/hisi-linux/x86-arm/arm-himix100-linux/host_bin/../lib/gcc/arm-linux-uclibceabi/6.3.0/libgcc.a(_divsi3.o)
 .debug_info    0x0007167c       0x26 /opt/hisi-linux/x86-arm/arm-himix100-linux/host_bin/../lib/gcc/arm-linux-uclibceabi/6.3.0/libgcc.a(_dvmd_lnx.o)
 .debug_info    0x000716a2       0x26 /opt/hisi-linux/x86-arm/arm-himix100-linux/host_bin/../lib/gcc/arm-linux-uclibceabi/6.3.0/libgcc.a(_lshrdi3.o)
 .debug_info    0x000716c8       0x26 /opt/hisi-linux/x86-arm/arm-himix100-linux/host_bin/../lib/gcc/arm-linux-uclibceabi/6.3.0/libgcc.a(_udivsi3.o)

.debug_abbrev   0x00000000    0x13a88
 .debug_abbrev  0x00000000       0x14 arch/arm/cpu/hi3516cv300/start.o
 .debug_abbrev  0x00000014      0x438 drivers/ddr/ddr_training_impl.o
 .debug_abbrev  0x0000044c      0x177 drivers/ddr/ddr_training_ctl.o
 .debug_abbrev  0x000005c3      0x16f drivers/ddr/ddr_training_boot.o
 .debug_abbrev  0x00000732       0x5a drivers/ddr/ddr_training_custom.o
 .debug_abbrev  0x0000078c       0x14 arch/arm/cpu/hi3516cv300/libhi3516cv300.a(uart.o)
 .debug_abbrev  0x000007a0      0x1c6 arch/arm/cpu/hi3516cv300/libhi3516cv300.a(lowlevel_init_v300.o)
 .debug_abbrev  0x00000966      0x284 arch/arm/cpu/hi3516cv300/libhi3516cv300.a(emmc_boot.o)
 .debug_abbrev  0x00000bea       0xaa arch/arm/cpu/hi3516cv300/libhi3516cv300.a(chip.o)
 .debug_abbrev  0x00000c94      0x325 arch/arm/lib/libarm.a(board.o)
 .debug_abbrev  0x00000fb9      0x1f2 arch/arm/lib/libarm.a(interrupts.o)
 .debug_abbrev  0x000011ab       0x14 arch/arm/lib/libarm.a(memset.o)
 .debug_abbrev  0x000011bf       0x14 arch/arm/lib/libarm.a(memcpy.o)
 .debug_abbrev  0x000011d3      0x27c net/libnet.a(eth.o)
 .debug_abbrev  0x0000144f      0x543 net/libnet.a(net.o)
 .debug_abbrev  0x00001992      0x217 net/libnet.a(rarp.o)
 .debug_abbrev  0x00001ba9      0x3b3 net/libnet.a(tftp.o)
 .debug_abbrev  0x00001f5c      0x373 net/libnet.a(bootp.o)
 .debug_abbrev  0x000022cf      0x550 drivers/mmc/libmmc.a(mmc.o)
 .debug_abbrev  0x0000281f      0x4ef drivers/mmc/libmmc.a(himciv200.o)
 .debug_abbrev  0x00002d0e      0x2e5 drivers/mtd/nand/libnand.a(nand.o)
 .debug_abbrev  0x00002ff3      0x607 drivers/mtd/nand/libnand.a(nand_base.o)
 .debug_abbrev  0x000035fa      0x4b4 drivers/mtd/nand/libnand.a(nand_bbt.o)
 .debug_abbrev  0x00003aae      0x276 drivers/mtd/nand/libnand.a(nand_ecc.o)
 .debug_abbrev  0x00003d24      0x122 drivers/mtd/nand/libnand.a(nand_ids.o)
 .debug_abbrev  0x00003e46      0x23e drivers/mtd/nand/libnand.a(hinfc_common.o)
 .debug_abbrev  0x00004084      0x335 drivers/mtd/nand/hifmc100/libhifmcv100.a(hifmc100_os.o)
 .debug_abbrev  0x000043b9      0x521 drivers/mtd/nand/hifmc100/libhifmcv100.a(hifmc100.o)
 .debug_abbrev  0x000048da      0x451 drivers/mtd/nand/hifmc100/libhifmcv100.a(hifmc_spi_nand_ids.o)
 .debug_abbrev  0x00004d2b      0x1ee drivers/mtd/spi/libspi_flash.a(spi_compatible.o)
 .debug_abbrev  0x00004f19      0x31d drivers/mtd/spi/hifmc100/libhifmcv100.a(hifmc100_os.o)
 .debug_abbrev  0x00005236      0x3fc drivers/mtd/spi/hifmc100/libhifmcv100.a(hifmc_spi_nor_ids.o)
 .debug_abbrev  0x00005632      0x41f drivers/mtd/spi/hifmc100/libhifmcv100.a(hifmc100.o)
 .debug_abbrev  0x00005a51      0x4f4 drivers/net/hisfv300/libhisfv300.a(net-drv.o)
 .debug_abbrev  0x00005f45      0x238 drivers/net/hisfv300/libhisfv300.a(mii-drv.o)
 .debug_abbrev  0x0000617d      0x271 drivers/net/hisfv300/libhisfv300.a(ctrl.o)
 .debug_abbrev  0x000063ee      0x22a drivers/net/hisfv300/libhisfv300.a(glb.o)
 .debug_abbrev  0x00006618      0x2c4 drivers/net/hisfv300/libhisfv300.a(mac.o)
 .debug_abbrev  0x000068dc      0x261 drivers/net/hisfv300/libhisfv300.a(mdio.o)
 .debug_abbrev  0x00006b3d      0x2b9 drivers/net/hisfv300/libhisfv300.a(sys.o)
 .debug_abbrev  0x00006df6      0x57e common/bootss2.a(cmd_bootss2.o)
 .debug_abbrev  0x00007374      0x28c drivers/serial/libserial.a(serial_pl01x.o)
 .debug_abbrev  0x00007600      0x303 drivers/usb/gadget/hiudc/libhiudc.a(device_loader.o)
 .debug_abbrev  0x00007903      0x612 drivers/usb/gadget/hiudc/libhiudc.a(device.o)
 .debug_abbrev  0x00007f15      0x1c3 common/libcommon.a(cmd_boot.o)
 .debug_abbrev  0x000080d8      0x419 common/libcommon.a(cmd_bootm.o)
 .debug_abbrev  0x000084f1      0x2b8 common/libcommon.a(cmd_ddr_training_v2.o)
 .debug_abbrev  0x000087a9      0x288 common/libcommon.a(cmd_ext2.o)
 .debug_abbrev  0x00008a31      0x277 common/libcommon.a(cmd_fat.o)
 .debug_abbrev  0x00008ca8      0x1dc common/libcommon.a(cmd_getinfo.o)
 .debug_abbrev  0x00008e84      0x178 common/libcommon.a(cmd_help.o)
 .debug_abbrev  0x00008ffc      0x26b common/libcommon.a(cmd_hle_double_system_bootm.o)
 .debug_abbrev  0x00009267      0x3b0 common/libcommon.a(cmd_load.o)
 .debug_abbrev  0x00009617      0x37a common/libcommon.a(cmd_mem.o)
 .debug_abbrev  0x00009991      0x314 common/libcommon.a(cmd_mii.o)
 .debug_abbrev  0x00009ca5      0x2e7 common/libcommon.a(cmd_mmc.o)
 .debug_abbrev  0x00009f8c      0x4e0 common/libcommon.a(cmd_nand.o)
 .debug_abbrev  0x0000a46c      0x2d6 common/libcommon.a(cmd_net.o)
 .debug_abbrev  0x0000a742      0x3cc common/libcommon.a(cmd_nvedit.o)
 .debug_abbrev  0x0000ab0e      0x37e common/libcommon.a(cmd_sf.o)
 .debug_abbrev  0x0000ae8c      0x206 common/libcommon.a(cmd_ugzip.o)
 .debug_abbrev  0x0000b092      0x17d common/libcommon.a(cmd_version.o)
 .debug_abbrev  0x0000b20f      0x425 common/libcommon.a(command.o)
 .debug_abbrev  0x0000b634      0x48f common/libcommon.a(console.o)
 .debug_abbrev  0x0000bac3      0x35d common/libcommon.a(dlmalloc.o)
 .debug_abbrev  0x0000be20      0x2a8 common/libcommon.a(download_process.o)
 .debug_abbrev  0x0000c0c8      0x301 common/libcommon.a(env_common.o)
 .debug_abbrev  0x0000c3c9      0x203 common/libcommon.a(env_common_func.o)
 .debug_abbrev  0x0000c5cc      0x2bd common/libcommon.a(env_emmc.o)
 .debug_abbrev  0x0000c889      0x3f3 common/libcommon.a(env_nand.o)
 .debug_abbrev  0x0000cc7c      0x30f common/libcommon.a(env_sf.o)
 .debug_abbrev  0x0000cf8b      0x1ca common/libcommon.a(exports.o)
 .debug_abbrev  0x0000d155      0x264 common/libcommon.a(flash_part.o)
 .debug_abbrev  0x0000d3b9      0x479 common/libcommon.a(image.o)
 .debug_abbrev  0x0000d832      0x425 common/libcommon.a(main.o)
 .debug_abbrev  0x0000dc57      0x355 common/libcommon.a(miiphyutil.o)
 .debug_abbrev  0x0000dfac      0x2da common/libcommon.a(stdio.o)
 .debug_abbrev  0x0000e286      0x3f3 common/libcommon.a(xyzModem.o)
 .debug_abbrev  0x0000e679      0x135 product/libproduct.a(sample.o)
 .debug_abbrev  0x0000e7ae      0x361 board/hi3516cv300/libhi3516cv300.a(board.o)
 .debug_abbrev  0x0000eb0f       0xc0 lib/libgeneric.a(crc16.o)
 .debug_abbrev  0x0000ebcf      0x1d7 lib/libgeneric.a(crc32.o)
 .debug_abbrev  0x0000eda6      0x203 lib/libgeneric.a(display_options.o)
 .debug_abbrev  0x0000efa9       0x98 lib/libgeneric.a(div64.o)
 .debug_abbrev  0x0000f041      0x21c lib/libgeneric.a(gunzip.o)
 .debug_abbrev  0x0000f25d      0x1e4 lib/libgeneric.a(net_utils.o)
 .debug_abbrev  0x0000f441      0x1d4 lib/libgeneric.a(string.o)
 .debug_abbrev  0x0000f615      0x174 lib/libgeneric.a(time.o)
 .debug_abbrev  0x0000f789      0x467 lib/libgeneric.a(vsprintf.o)
 .debug_abbrev  0x0000fbf0       0xff lib/libgeneric.a(match_table.o)
 .debug_abbrev  0x0000fcef      0x3d5 lib/libgeneric.a(zlib.o)
 .debug_abbrev  0x000100c4       0x47 lib/libgeneric.a(ctype.o)
 .debug_abbrev  0x0001010b      0x412 lib/hw_dec/libhw_dec.a(hw_decompress.o)
 .debug_abbrev  0x0001051d      0x34b drivers/ddr/libddr.a(ddr_cmd_ctl.o)
 .debug_abbrev  0x00010868      0x27f arch/arm/cpu/hi3516cv300/hi3516cv300/libhi3516cv300.a(timer.o)
 .debug_abbrev  0x00010ae7      0x334 arch/arm/lib/libarm.a(bootm.o)
 .debug_abbrev  0x00010e1b      0x13b arch/arm/lib/libarm.a(cache.o)
 .debug_abbrev  0x00010f56      0x1a7 arch/arm/lib/libarm.a(process.o)
 .debug_abbrev  0x000110fd      0x17f arch/arm/lib/libarm.a(reset.o)
 .debug_abbrev  0x0001127c       0xdb arch/arm/lib/libarm.a(hibernate_arm9.o)
 .debug_abbrev  0x00011357       0x14 arch/arm/lib/libarm.a(bootm_asm.o)
 .debug_abbrev  0x0001136b      0x43b fs/fat/libfat.a(fat.o)
 .debug_abbrev  0x000117a6      0x3ab fs/ext2/libext2fs.a(ext2fs.o)
 .debug_abbrev  0x00011b51      0x233 fs/ext2/libext2fs.a(dev.o)
 .debug_abbrev  0x00011d84      0x2f8 disk/libdisk.a(part.o)
 .debug_abbrev  0x0001207c      0x2f3 disk/libdisk.a(part_dos.o)
 .debug_abbrev  0x0001236f      0x2c8 drivers/mmc/libmmc.a(himciv200_dbg_boot_read.o)
 .debug_abbrev  0x00012637      0x2ae fs/ext4/libext4.a(unsparse.o)
 .debug_abbrev  0x000128e5      0x229 drivers/mtd/libmtd.a(hifmc_common.o)
 .debug_abbrev  0x00012b0e      0x1ac drivers/mtd/libmtd.a(hifmc_hi3516cv300.o)
 .debug_abbrev  0x00012cba      0x477 drivers/mtd/nand/libnand.a(nand_util.o)
 .debug_abbrev  0x00013131      0x344 lib/libgeneric.a(vsnprintf.o)
 .debug_abbrev  0x00013475      0x1a4 arch/arm/cpu/hi3516cv300/libhi3516cv300.a(cpu.o)
 .debug_abbrev  0x00013619      0x264 arch/arm/lib/libarm.a(cache-cp15.o)
 .debug_abbrev  0x0001387d       0x14 arch/arm/lib/libarm.a(mmu.o)
 .debug_abbrev  0x00013891      0x17f /home/yuanda.yu/svndebug/trunk/retarded/Hi3516CV300_SDK_V1.0.2.0/osdrv/opensource/u-boot/u-boot-2010.06/arch/arm/lib/eabi_compat.o
 .debug_abbrev  0x00013a10       0x14 /opt/hisi-linux/x86-arm/arm-himix100-linux/host_bin/../lib/gcc/arm-linux-uclibceabi/6.3.0/libgcc.a(_ashldi3.o)
 .debug_abbrev  0x00013a24       0x14 /opt/hisi-linux/x86-arm/arm-himix100-linux/host_bin/../lib/gcc/arm-linux-uclibceabi/6.3.0/libgcc.a(_ashrdi3.o)
 .debug_abbrev  0x00013a38       0x14 /opt/hisi-linux/x86-arm/arm-himix100-linux/host_bin/../lib/gcc/arm-linux-uclibceabi/6.3.0/libgcc.a(_divsi3.o)
 .debug_abbrev  0x00013a4c       0x14 /opt/hisi-linux/x86-arm/arm-himix100-linux/host_bin/../lib/gcc/arm-linux-uclibceabi/6.3.0/libgcc.a(_dvmd_lnx.o)
 .debug_abbrev  0x00013a60       0x14 /opt/hisi-linux/x86-arm/arm-himix100-linux/host_bin/../lib/gcc/arm-linux-uclibceabi/6.3.0/libgcc.a(_lshrdi3.o)
 .debug_abbrev  0x00013a74       0x14 /opt/hisi-linux/x86-arm/arm-himix100-linux/host_bin/../lib/gcc/arm-linux-uclibceabi/6.3.0/libgcc.a(_udivsi3.o)

.debug_aranges  0x00000000      0xf40
 .debug_aranges
                0x00000000       0x20 arch/arm/cpu/hi3516cv300/start.o
 .debug_aranges
                0x00000020       0x20 drivers/ddr/ddr_training_impl.o
 .debug_aranges
                0x00000040       0x20 drivers/ddr/ddr_training_ctl.o
 .debug_aranges
                0x00000060       0x20 drivers/ddr/ddr_training_boot.o
 .debug_aranges
                0x00000080       0x20 drivers/ddr/ddr_training_custom.o
 .debug_aranges
                0x000000a0       0x20 arch/arm/cpu/hi3516cv300/libhi3516cv300.a(uart.o)
 .debug_aranges
                0x000000c0       0x20 arch/arm/cpu/hi3516cv300/libhi3516cv300.a(lowlevel_init_v300.o)
 .debug_aranges
                0x000000e0       0x20 arch/arm/cpu/hi3516cv300/libhi3516cv300.a(emmc_boot.o)
 .debug_aranges
                0x00000100       0x20 arch/arm/cpu/hi3516cv300/libhi3516cv300.a(chip.o)
 .debug_aranges
                0x00000120       0x20 arch/arm/lib/libarm.a(board.o)
 .debug_aranges
                0x00000140       0x20 arch/arm/lib/libarm.a(interrupts.o)
 .debug_aranges
                0x00000160       0x20 arch/arm/lib/libarm.a(memset.o)
 .debug_aranges
                0x00000180       0x20 arch/arm/lib/libarm.a(memcpy.o)
 .debug_aranges
                0x000001a0       0x20 net/libnet.a(eth.o)
 .debug_aranges
                0x000001c0       0x20 net/libnet.a(net.o)
 .debug_aranges
                0x000001e0       0x20 net/libnet.a(rarp.o)
 .debug_aranges
                0x00000200       0x20 net/libnet.a(tftp.o)
 .debug_aranges
                0x00000220       0x20 net/libnet.a(bootp.o)
 .debug_aranges
                0x00000240       0x20 drivers/mmc/libmmc.a(mmc.o)
 .debug_aranges
                0x00000260       0x20 drivers/mmc/libmmc.a(himciv200.o)
 .debug_aranges
                0x00000280       0x20 drivers/mtd/nand/libnand.a(nand.o)
 .debug_aranges
                0x000002a0       0x20 drivers/mtd/nand/libnand.a(nand_base.o)
 .debug_aranges
                0x000002c0       0x20 drivers/mtd/nand/libnand.a(nand_bbt.o)
 .debug_aranges
                0x000002e0       0x20 drivers/mtd/nand/libnand.a(nand_ecc.o)
 .debug_aranges
                0x00000300       0x18 drivers/mtd/nand/libnand.a(nand_ids.o)
 .debug_aranges
                0x00000318       0x20 drivers/mtd/nand/libnand.a(hinfc_common.o)
 .debug_aranges
                0x00000338       0x20 drivers/mtd/nand/hifmc100/libhifmcv100.a(hifmc100_os.o)
 .debug_aranges
                0x00000358       0x20 drivers/mtd/nand/hifmc100/libhifmcv100.a(hifmc100.o)
 .debug_aranges
                0x00000378       0x20 drivers/mtd/nand/hifmc100/libhifmcv100.a(hifmc_spi_nand_ids.o)
 .debug_aranges
                0x00000398       0x20 drivers/mtd/spi/libspi_flash.a(spi_compatible.o)
 .debug_aranges
                0x000003b8       0x20 drivers/mtd/spi/hifmc100/libhifmcv100.a(hifmc100_os.o)
 .debug_aranges
                0x000003d8       0x20 drivers/mtd/spi/hifmc100/libhifmcv100.a(hifmc_spi_nor_ids.o)
 .debug_aranges
                0x000003f8       0x20 drivers/mtd/spi/hifmc100/libhifmcv100.a(hifmc100.o)
 .debug_aranges
                0x00000418       0x20 drivers/net/hisfv300/libhisfv300.a(net-drv.o)
 .debug_aranges
                0x00000438       0x20 drivers/net/hisfv300/libhisfv300.a(mii-drv.o)
 .debug_aranges
                0x00000458       0x20 drivers/net/hisfv300/libhisfv300.a(ctrl.o)
 .debug_aranges
                0x00000478       0x20 drivers/net/hisfv300/libhisfv300.a(glb.o)
 .debug_aranges
                0x00000498       0x20 drivers/net/hisfv300/libhisfv300.a(mac.o)
 .debug_aranges
                0x000004b8       0x20 drivers/net/hisfv300/libhisfv300.a(mdio.o)
 .debug_aranges
                0x000004d8       0x20 drivers/net/hisfv300/libhisfv300.a(sys.o)
 .debug_aranges
                0x000004f8       0x20 common/bootss2.a(cmd_bootss2.o)
 .debug_aranges
                0x00000518       0x20 drivers/serial/libserial.a(serial_pl01x.o)
 .debug_aranges
                0x00000538       0x20 drivers/usb/gadget/hiudc/libhiudc.a(device_loader.o)
 .debug_aranges
                0x00000558       0x20 drivers/usb/gadget/hiudc/libhiudc.a(device.o)
 .debug_aranges
                0x00000578       0x20 common/libcommon.a(cmd_boot.o)
 .debug_aranges
                0x00000598       0x20 common/libcommon.a(cmd_bootm.o)
 .debug_aranges
                0x000005b8       0x20 common/libcommon.a(cmd_ddr_training_v2.o)
 .debug_aranges
                0x000005d8       0x20 common/libcommon.a(cmd_ext2.o)
 .debug_aranges
                0x000005f8       0x20 common/libcommon.a(cmd_fat.o)
 .debug_aranges
                0x00000618       0x20 common/libcommon.a(cmd_getinfo.o)
 .debug_aranges
                0x00000638       0x20 common/libcommon.a(cmd_help.o)
 .debug_aranges
                0x00000658       0x20 common/libcommon.a(cmd_hle_double_system_bootm.o)
 .debug_aranges
                0x00000678       0x20 common/libcommon.a(cmd_load.o)
 .debug_aranges
                0x00000698       0x20 common/libcommon.a(cmd_mem.o)
 .debug_aranges
                0x000006b8       0x20 common/libcommon.a(cmd_mii.o)
 .debug_aranges
                0x000006d8       0x20 common/libcommon.a(cmd_mmc.o)
 .debug_aranges
                0x000006f8       0x30 common/libcommon.a(cmd_nand.o)
 .debug_aranges
                0x00000728       0x20 common/libcommon.a(cmd_net.o)
 .debug_aranges
                0x00000748       0x20 common/libcommon.a(cmd_nvedit.o)
 .debug_aranges
                0x00000768       0x20 common/libcommon.a(cmd_sf.o)
 .debug_aranges
                0x00000788       0x20 common/libcommon.a(cmd_ugzip.o)
 .debug_aranges
                0x000007a8       0x20 common/libcommon.a(cmd_version.o)
 .debug_aranges
                0x000007c8       0x20 common/libcommon.a(command.o)
 .debug_aranges
                0x000007e8       0x20 common/libcommon.a(console.o)
 .debug_aranges
                0x00000808       0x20 common/libcommon.a(dlmalloc.o)
 .debug_aranges
                0x00000828       0x20 common/libcommon.a(download_process.o)
 .debug_aranges
                0x00000848       0x20 common/libcommon.a(env_common.o)
 .debug_aranges
                0x00000868       0x20 common/libcommon.a(env_common_func.o)
 .debug_aranges
                0x00000888       0x20 common/libcommon.a(env_emmc.o)
 .debug_aranges
                0x000008a8       0x20 common/libcommon.a(env_nand.o)
 .debug_aranges
                0x000008c8       0x20 common/libcommon.a(env_sf.o)
 .debug_aranges
                0x000008e8       0x20 common/libcommon.a(exports.o)
 .debug_aranges
                0x00000908       0x20 common/libcommon.a(flash_part.o)
 .debug_aranges
                0x00000928       0x20 common/libcommon.a(image.o)
 .debug_aranges
                0x00000948       0x20 common/libcommon.a(main.o)
 .debug_aranges
                0x00000968       0x20 common/libcommon.a(miiphyutil.o)
 .debug_aranges
                0x00000988       0x20 common/libcommon.a(stdio.o)
 .debug_aranges
                0x000009a8       0x20 common/libcommon.a(xyzModem.o)
 .debug_aranges
                0x000009c8       0x20 product/libproduct.a(sample.o)
 .debug_aranges
                0x000009e8       0x20 board/hi3516cv300/libhi3516cv300.a(board.o)
 .debug_aranges
                0x00000a08       0x20 lib/libgeneric.a(crc16.o)
 .debug_aranges
                0x00000a28       0x20 lib/libgeneric.a(crc32.o)
 .debug_aranges
                0x00000a48       0x20 lib/libgeneric.a(display_options.o)
 .debug_aranges
                0x00000a68       0x20 lib/libgeneric.a(div64.o)
 .debug_aranges
                0x00000a88       0x20 lib/libgeneric.a(gunzip.o)
 .debug_aranges
                0x00000aa8       0x20 lib/libgeneric.a(net_utils.o)
 .debug_aranges
                0x00000ac8       0x20 lib/libgeneric.a(string.o)
 .debug_aranges
                0x00000ae8       0x20 lib/libgeneric.a(time.o)
 .debug_aranges
                0x00000b08       0x20 lib/libgeneric.a(vsprintf.o)
 .debug_aranges
                0x00000b28       0x20 lib/libgeneric.a(match_table.o)
 .debug_aranges
                0x00000b48       0x20 lib/libgeneric.a(zlib.o)
 .debug_aranges
                0x00000b68       0x18 lib/libgeneric.a(ctype.o)
 .debug_aranges
                0x00000b80       0x20 lib/hw_dec/libhw_dec.a(hw_decompress.o)
 .debug_aranges
                0x00000ba0       0x20 drivers/ddr/libddr.a(ddr_cmd_ctl.o)
 .debug_aranges
                0x00000bc0       0x20 arch/arm/cpu/hi3516cv300/hi3516cv300/libhi3516cv300.a(timer.o)
 .debug_aranges
                0x00000be0       0x20 arch/arm/lib/libarm.a(bootm.o)
 .debug_aranges
                0x00000c00       0x20 arch/arm/lib/libarm.a(cache.o)
 .debug_aranges
                0x00000c20       0x20 arch/arm/lib/libarm.a(process.o)
 .debug_aranges
                0x00000c40       0x20 arch/arm/lib/libarm.a(reset.o)
 .debug_aranges
                0x00000c60       0x20 arch/arm/lib/libarm.a(hibernate_arm9.o)
 .debug_aranges
                0x00000c80       0x20 arch/arm/lib/libarm.a(bootm_asm.o)
 .debug_aranges
                0x00000ca0       0x20 fs/fat/libfat.a(fat.o)
 .debug_aranges
                0x00000cc0       0x20 fs/ext2/libext2fs.a(ext2fs.o)
 .debug_aranges
                0x00000ce0       0x20 fs/ext2/libext2fs.a(dev.o)
 .debug_aranges
                0x00000d00       0x20 disk/libdisk.a(part.o)
 .debug_aranges
                0x00000d20       0x20 disk/libdisk.a(part_dos.o)
 .debug_aranges
                0x00000d40       0x20 drivers/mmc/libmmc.a(himciv200_dbg_boot_read.o)
 .debug_aranges
                0x00000d60       0x20 fs/ext4/libext4.a(unsparse.o)
 .debug_aranges
                0x00000d80       0x20 drivers/mtd/libmtd.a(hifmc_common.o)
 .debug_aranges
                0x00000da0       0x20 drivers/mtd/libmtd.a(hifmc_hi3516cv300.o)
 .debug_aranges
                0x00000dc0       0x20 drivers/mtd/nand/libnand.a(nand_util.o)
 .debug_aranges
                0x00000de0       0x20 lib/libgeneric.a(vsnprintf.o)
 .debug_aranges
                0x00000e00       0x20 arch/arm/cpu/hi3516cv300/libhi3516cv300.a(cpu.o)
 .debug_aranges
                0x00000e20       0x20 arch/arm/lib/libarm.a(cache-cp15.o)
 .debug_aranges
                0x00000e40       0x20 arch/arm/lib/libarm.a(mmu.o)
 .debug_aranges
                0x00000e60       0x20 /home/yuanda.yu/svndebug/trunk/retarded/Hi3516CV300_SDK_V1.0.2.0/osdrv/opensource/u-boot/u-boot-2010.06/arch/arm/lib/eabi_compat.o
 .debug_aranges
                0x00000e80       0x20 /opt/hisi-linux/x86-arm/arm-himix100-linux/host_bin/../lib/gcc/arm-linux-uclibceabi/6.3.0/libgcc.a(_ashldi3.o)
 .debug_aranges
                0x00000ea0       0x20 /opt/hisi-linux/x86-arm/arm-himix100-linux/host_bin/../lib/gcc/arm-linux-uclibceabi/6.3.0/libgcc.a(_ashrdi3.o)
 .debug_aranges
                0x00000ec0       0x20 /opt/hisi-linux/x86-arm/arm-himix100-linux/host_bin/../lib/gcc/arm-linux-uclibceabi/6.3.0/libgcc.a(_divsi3.o)
 .debug_aranges
                0x00000ee0       0x20 /opt/hisi-linux/x86-arm/arm-himix100-linux/host_bin/../lib/gcc/arm-linux-uclibceabi/6.3.0/libgcc.a(_dvmd_lnx.o)
 .debug_aranges
                0x00000f00       0x20 /opt/hisi-linux/x86-arm/arm-himix100-linux/host_bin/../lib/gcc/arm-linux-uclibceabi/6.3.0/libgcc.a(_lshrdi3.o)
 .debug_aranges
                0x00000f20       0x20 /opt/hisi-linux/x86-arm/arm-himix100-linux/host_bin/../lib/gcc/arm-linux-uclibceabi/6.3.0/libgcc.a(_udivsi3.o)

.debug_str      0x00000000     0xc5ac
 .debug_str     0x00000000       0x95 arch/arm/cpu/hi3516cv300/start.o
 .debug_str     0x00000095      0x8a2 drivers/ddr/ddr_training_impl.o
                                0x957 (size before relaxing)
 .debug_str     0x00000937       0x7f drivers/ddr/ddr_training_ctl.o
                                0x3f4 (size before relaxing)
 .debug_str     0x000009b6       0x82 drivers/ddr/ddr_training_boot.o
                                0x353 (size before relaxing)
 .debug_str     0x00000a38       0x52 drivers/ddr/ddr_training_custom.o
                                0x20b (size before relaxing)
 .debug_str     0x00000a8a        0x7 arch/arm/cpu/hi3516cv300/libhi3516cv300.a(uart.o)
                                 0x94 (size before relaxing)
 .debug_str     0x00000a91       0x9a arch/arm/cpu/hi3516cv300/libhi3516cv300.a(lowlevel_init_v300.o)
                                0x28c (size before relaxing)
 .debug_str     0x00000b2b       0xc0 arch/arm/cpu/hi3516cv300/libhi3516cv300.a(emmc_boot.o)
                                0x280 (size before relaxing)
 .debug_str     0x00000beb       0x47 arch/arm/cpu/hi3516cv300/libhi3516cv300.a(chip.o)
                                0x214 (size before relaxing)
 .debug_str     0x00000c32      0x9b5 arch/arm/lib/libarm.a(board.o)
                                0xd14 (size before relaxing)
 .debug_str     0x000015e7       0xc7 arch/arm/lib/libarm.a(interrupts.o)
                                0x5f4 (size before relaxing)
 .debug_str     0x000016ae        0x9 arch/arm/lib/libarm.a(memset.o)
                                 0x8a (size before relaxing)
 .debug_str     0x000016b7        0x9 arch/arm/lib/libarm.a(memcpy.o)
                                 0x8a (size before relaxing)
 .debug_str     0x000016c0      0x11d net/libnet.a(eth.o)
                                0x64e (size before relaxing)
 .debug_str     0x000017dd      0x4ed net/libnet.a(net.o)
                                0xb95 (size before relaxing)
 .debug_str     0x00001cca       0x40 net/libnet.a(rarp.o)
                                0x5f9 (size before relaxing)
 .debug_str     0x00001d0a      0x27f net/libnet.a(tftp.o)
                                0x894 (size before relaxing)
 .debug_str     0x00001f89      0x161 net/libnet.a(bootp.o)
                                0x7b9 (size before relaxing)
 .debug_str     0x000020ea      0x449 drivers/mmc/libmmc.a(mmc.o)
                                0xb0b (size before relaxing)
 .debug_str     0x00002533      0x386 drivers/mmc/libmmc.a(himciv200.o)
                                0xbd8 (size before relaxing)
 .debug_str     0x000028b9      0x2cf drivers/mtd/nand/libnand.a(nand.o)
                                0xd2b (size before relaxing)
 .debug_str     0x00002b88      0x816 drivers/mtd/nand/libnand.a(nand_base.o)
                               0x1513 (size before relaxing)
 .debug_str     0x0000339e      0x263 drivers/mtd/nand/libnand.a(nand_bbt.o)
                                0xf14 (size before relaxing)
 .debug_str     0x00003601       0x87 drivers/mtd/nand/libnand.a(nand_ecc.o)
                                0x91c (size before relaxing)
 .debug_str     0x00003688       0x87 drivers/mtd/nand/libnand.a(nand_ids.o)
                                0x572 (size before relaxing)
 .debug_str     0x00003688      0x1e3 drivers/mtd/nand/libnand.a(hinfc_common.o)
                                0xe97 (size before relaxing)
 .debug_str     0x0000386b      0x259 drivers/mtd/nand/hifmc100/libhifmcv100.a(hifmc100_os.o)
                                0xf8c (size before relaxing)
 .debug_str     0x00003ac4      0x2aa drivers/mtd/nand/hifmc100/libhifmcv100.a(hifmc100.o)
                               0x1300 (size before relaxing)
 .debug_str     0x00003d6e      0x67a drivers/mtd/nand/hifmc100/libhifmcv100.a(hifmc_spi_nand_ids.o)
                               0x158f (size before relaxing)
 .debug_str     0x000043e8      0x116 drivers/mtd/spi/libspi_flash.a(spi_compatible.o)
                                0x6b9 (size before relaxing)
 .debug_str     0x000044fe      0x156 drivers/mtd/spi/hifmc100/libhifmcv100.a(hifmc100_os.o)
                                0x879 (size before relaxing)
 .debug_str     0x00004654      0x742 drivers/mtd/spi/hifmc100/libhifmcv100.a(hifmc_spi_nor_ids.o)
                               0x1152 (size before relaxing)
 .debug_str     0x00004d96      0x187 drivers/mtd/spi/hifmc100/libhifmcv100.a(hifmc100.o)
                                0xa1e (size before relaxing)
 .debug_str     0x00004f1d      0x425 drivers/net/hisfv300/libhisfv300.a(net-drv.o)
                                0xa8d (size before relaxing)
 .debug_str     0x00005342      0x11e drivers/net/hisfv300/libhisfv300.a(mii-drv.o)
                                0x6fc (size before relaxing)
 .debug_str     0x00005460       0x76 drivers/net/hisfv300/libhisfv300.a(ctrl.o)
                                0x66a (size before relaxing)
 .debug_str     0x000054d6       0x39 drivers/net/hisfv300/libhisfv300.a(glb.o)
                                0x640 (size before relaxing)
 .debug_str     0x0000550f       0x6c drivers/net/hisfv300/libhisfv300.a(mac.o)
                                0x6aa (size before relaxing)
 .debug_str     0x0000557b       0x2f drivers/net/hisfv300/libhisfv300.a(mdio.o)
                                0x60c (size before relaxing)
 .debug_str     0x000055aa       0xd7 drivers/net/hisfv300/libhisfv300.a(sys.o)
                                0x68f (size before relaxing)
 .debug_str     0x00005681      0x6af common/bootss2.a(cmd_bootss2.o)
                                0xf32 (size before relaxing)
 .debug_str     0x00005d30      0x133 drivers/serial/libserial.a(serial_pl01x.o)
                                0x5cc (size before relaxing)
 .debug_str     0x00005e63      0x2d1 drivers/usb/gadget/hiudc/libhiudc.a(device_loader.o)
                                0x807 (size before relaxing)
 .debug_str     0x00006134     0x1663 drivers/usb/gadget/hiudc/libhiudc.a(device.o)
                               0x1dfa (size before relaxing)
 .debug_str     0x00007797       0xb8 common/libcommon.a(cmd_boot.o)
                                0x57e (size before relaxing)
 .debug_str     0x0000784f      0x4b3 common/libcommon.a(cmd_bootm.o)
                                0xbcf (size before relaxing)
 .debug_str     0x00007d02      0x1b8 common/libcommon.a(cmd_ddr_training_v2.o)
                                0x72b (size before relaxing)
 .debug_str     0x00007eba       0xea common/libcommon.a(cmd_ext2.o)
                                0x6fc (size before relaxing)
 .debug_str     0x00007fa4       0xad common/libcommon.a(cmd_fat.o)
                                0x69c (size before relaxing)
 .debug_str     0x00008051       0x3b common/libcommon.a(cmd_getinfo.o)
                                0x68b (size before relaxing)
 .debug_str     0x0000808c       0x41 common/libcommon.a(cmd_help.o)
                                0x557 (size before relaxing)
 .debug_str     0x000080cd      0x199 common/libcommon.a(cmd_hle_double_system_bootm.o)
                                0x76b (size before relaxing)
 .debug_str     0x00008266      0x2fd common/libcommon.a(cmd_load.o)
                                0x97c (size before relaxing)
 .debug_str     0x00008563      0x22c common/libcommon.a(cmd_mem.o)
                                0x7bf (size before relaxing)
 .debug_str     0x0000878f      0x1df common/libcommon.a(cmd_mii.o)
                                0x7e5 (size before relaxing)
 .debug_str     0x0000896e       0x86 common/libcommon.a(cmd_mmc.o)
                                0x7c8 (size before relaxing)
 .debug_str     0x000089f4      0x290 common/libcommon.a(cmd_nand.o)
                               0x118f (size before relaxing)
 .debug_str     0x00008c84       0x9b common/libcommon.a(cmd_net.o)
                                0x6a0 (size before relaxing)
 .debug_str     0x00008d1f       0xd8 common/libcommon.a(cmd_nvedit.o)
                                0x81d (size before relaxing)
 .debug_str     0x00008df7       0x9d common/libcommon.a(cmd_sf.o)
                                0x7d8 (size before relaxing)
 .debug_str     0x00008e94       0x74 common/libcommon.a(cmd_ugzip.o)
                                0x5c7 (size before relaxing)
 .debug_str     0x00008f08       0x2e common/libcommon.a(cmd_version.o)
                                0x552 (size before relaxing)
 .debug_str     0x00008f36      0x13a common/libcommon.a(command.o)
                                0x6e3 (size before relaxing)
 .debug_str     0x00009070      0x2c5 common/libcommon.a(console.o)
                                0x9bc (size before relaxing)
 .debug_str     0x00009335      0x296 common/libcommon.a(dlmalloc.o)
                                0x91c (size before relaxing)
 .debug_str     0x000095cb       0x78 common/libcommon.a(download_process.o)
                                0x606 (size before relaxing)
 .debug_str     0x00009643       0x77 common/libcommon.a(env_common.o)
                                0x724 (size before relaxing)
 .debug_str     0x000096ba       0x58 common/libcommon.a(env_common_func.o)
                                0x5e6 (size before relaxing)
 .debug_str     0x00009712       0x67 common/libcommon.a(env_emmc.o)
                                0x81e (size before relaxing)
 .debug_str     0x00009779       0xa8 common/libcommon.a(env_nand.o)
                                0xb43 (size before relaxing)
 .debug_str     0x00009821       0xb2 common/libcommon.a(env_sf.o)
                                0x83f (size before relaxing)
 .debug_str     0x000098d3        0xa common/libcommon.a(exports.o)
                                0x736 (size before relaxing)
 .debug_str     0x000098dd       0x53 common/libcommon.a(flash_part.o)
                                0x9ad (size before relaxing)
 .debug_str     0x00009930      0x20d common/libcommon.a(image.o)
                                0xba5 (size before relaxing)
 .debug_str     0x00009b3d      0x210 common/libcommon.a(main.o)
                                0x905 (size before relaxing)
 .debug_str     0x00009d4d       0x88 common/libcommon.a(miiphyutil.o)
                                0x73b (size before relaxing)
 .debug_str     0x00009dd5       0x33 common/libcommon.a(stdio.o)
                                0x784 (size before relaxing)
 .debug_str     0x00009e08      0x156 common/libcommon.a(xyzModem.o)
                                0x73e (size before relaxing)
 .debug_str     0x00009f5e      0x19c product/libproduct.a(sample.o)
                                0x526 (size before relaxing)
 .debug_str     0x0000a0fa       0xe6 board/hi3516cv300/libhi3516cv300.a(board.o)
                                0x8a3 (size before relaxing)
 .debug_str     0x0000a1e0       0x7e lib/libgeneric.a(crc16.o)
                                0x246 (size before relaxing)
 .debug_str     0x0000a25e       0x3c lib/libgeneric.a(crc32.o)
                                0x579 (size before relaxing)
 .debug_str     0x0000a29a       0x32 lib/libgeneric.a(display_options.o)
                                0x5b9 (size before relaxing)
 .debug_str     0x0000a2cc        0xe lib/libgeneric.a(div64.o)
                                0x25e (size before relaxing)
 .debug_str     0x0000a2da       0xf0 lib/libgeneric.a(gunzip.o)
                                0x66d (size before relaxing)
 .debug_str     0x0000a3ca        0xc lib/libgeneric.a(net_utils.o)
                                0x533 (size before relaxing)
 .debug_str     0x0000a3d6       0x70 lib/libgeneric.a(string.o)
                                0x352 (size before relaxing)
 .debug_str     0x0000a446        0xc lib/libgeneric.a(time.o)
                                0x512 (size before relaxing)
 .debug_str     0x0000a452       0xf5 lib/libgeneric.a(vsprintf.o)
                                0x716 (size before relaxing)
 .debug_str     0x0000a547       0x33 lib/libgeneric.a(match_table.o)
                                0x2f5 (size before relaxing)
 .debug_str     0x0000a57a      0x2a5 lib/libgeneric.a(zlib.o)
                                0x9e1 (size before relaxing)
 .debug_str     0x0000a81f        0x8 lib/libgeneric.a(ctype.o)
                                0x1a9 (size before relaxing)
 .debug_str     0x0000a827      0x3c9 lib/hw_dec/libhw_dec.a(hw_decompress.o)
                                0x900 (size before relaxing)
 .debug_str     0x0000abf0      0x10b drivers/ddr/libddr.a(ddr_cmd_ctl.o)
                                0x7c6 (size before relaxing)
 .debug_str     0x0000acfb      0x111 arch/arm/cpu/hi3516cv300/hi3516cv300/libhi3516cv300.a(timer.o)
                                0x5d2 (size before relaxing)
 .debug_str     0x0000ae0c      0x282 arch/arm/lib/libarm.a(bootm.o)
                                0xa84 (size before relaxing)
 .debug_str     0x0000b08e       0x16 arch/arm/lib/libarm.a(cache.o)
                                0x521 (size before relaxing)
 .debug_str     0x0000b0a4       0x1a arch/arm/lib/libarm.a(process.o)
                                0x546 (size before relaxing)
 .debug_str     0x0000b0be        0x8 arch/arm/lib/libarm.a(reset.o)
                                0x55a (size before relaxing)
 .debug_str     0x0000b0c6       0x91 arch/arm/lib/libarm.a(hibernate_arm9.o)
                                0x26e (size before relaxing)
 .debug_str     0x0000b157        0xc arch/arm/lib/libarm.a(bootm_asm.o)
                                 0x8d (size before relaxing)
 .debug_str     0x0000b163      0x493 fs/fat/libfat.a(fat.o)
                                0xaf6 (size before relaxing)
 .debug_str     0x0000b5f6      0x574 fs/ext2/libext2fs.a(ext2fs.o)
                                0xbb7 (size before relaxing)
 .debug_str     0x0000bb6a       0x48 fs/ext2/libext2fs.a(dev.o)
                                0x646 (size before relaxing)
 .debug_str     0x0000bbb2      0x10d disk/libdisk.a(part.o)
                                0x748 (size before relaxing)
 .debug_str     0x0000bcbf      0x114 disk/libdisk.a(part_dos.o)
                                0x727 (size before relaxing)
 .debug_str     0x0000bdd3       0x8c drivers/mmc/libmmc.a(himciv200_dbg_boot_read.o)
                                0x613 (size before relaxing)
 .debug_str     0x0000be5f      0x177 fs/ext4/libext4.a(unsparse.o)
                                0x830 (size before relaxing)
 .debug_str     0x0000bfd6       0xbe drivers/mtd/libmtd.a(hifmc_common.o)
                                0x5e6 (size before relaxing)
 .debug_str     0x0000c094       0x5a drivers/mtd/libmtd.a(hifmc_hi3516cv300.o)
                                0x5b9 (size before relaxing)
 .debug_str     0x0000c0ee      0x114 drivers/mtd/nand/libnand.a(nand_util.o)
                                0xf0c (size before relaxing)
 .debug_str     0x0000c202       0xe1 lib/libgeneric.a(vsnprintf.o)
                                0x6ba (size before relaxing)
 .debug_str     0x0000c2e3       0x77 arch/arm/cpu/hi3516cv300/libhi3516cv300.a(cpu.o)
                                0x5c1 (size before relaxing)
 .debug_str     0x0000c35a       0xdc arch/arm/lib/libarm.a(cache-cp15.o)
                                0x623 (size before relaxing)
 .debug_str     0x0000c436        0x6 arch/arm/lib/libarm.a(mmu.o)
                                 0x87 (size before relaxing)
 .debug_str     0x0000c43c       0x32 /home/yuanda.yu/svndebug/trunk/retarded/Hi3516CV300_SDK_V1.0.2.0/osdrv/opensource/u-boot/u-boot-2010.06/arch/arm/lib/eabi_compat.o
                                0x538 (size before relaxing)
 .debug_str     0x0000c46e      0x13e /opt/hisi-linux/x86-arm/arm-himix100-linux/host_bin/../lib/gcc/arm-linux-uclibceabi/6.3.0/libgcc.a(_ashldi3.o)
                                0x14a (size before relaxing)
 .debug_str     0x0000c5ac      0x14a /opt/hisi-linux/x86-arm/arm-himix100-linux/host_bin/../lib/gcc/arm-linux-uclibceabi/6.3.0/libgcc.a(_ashrdi3.o)
 .debug_str     0x0000c5ac      0x14a /opt/hisi-linux/x86-arm/arm-himix100-linux/host_bin/../lib/gcc/arm-linux-uclibceabi/6.3.0/libgcc.a(_divsi3.o)
 .debug_str     0x0000c5ac      0x14a /opt/hisi-linux/x86-arm/arm-himix100-linux/host_bin/../lib/gcc/arm-linux-uclibceabi/6.3.0/libgcc.a(_dvmd_lnx.o)
 .debug_str     0x0000c5ac      0x14a /opt/hisi-linux/x86-arm/arm-himix100-linux/host_bin/../lib/gcc/arm-linux-uclibceabi/6.3.0/libgcc.a(_lshrdi3.o)
 .debug_str     0x0000c5ac      0x14a /opt/hisi-linux/x86-arm/arm-himix100-linux/host_bin/../lib/gcc/arm-linux-uclibceabi/6.3.0/libgcc.a(_udivsi3.o)

.debug_loc      0x00000000    0x3461d
 .debug_loc     0x00000000     0x23ce drivers/ddr/ddr_training_impl.o
 .debug_loc     0x000023ce       0xad drivers/ddr/ddr_training_ctl.o
 .debug_loc     0x0000247b       0xe7 drivers/ddr/ddr_training_boot.o
 .debug_loc     0x00002562      0x3ba arch/arm/cpu/hi3516cv300/libhi3516cv300.a(lowlevel_init_v300.o)
 .debug_loc     0x0000291c      0xb41 arch/arm/cpu/hi3516cv300/libhi3516cv300.a(emmc_boot.o)
 .debug_loc     0x0000345d       0x21 arch/arm/cpu/hi3516cv300/libhi3516cv300.a(chip.o)
 .debug_loc     0x0000347e       0x74 arch/arm/lib/libarm.a(board.o)
 .debug_loc     0x000034f2      0x17a arch/arm/lib/libarm.a(interrupts.o)
 .debug_loc     0x0000366c      0x1b6 net/libnet.a(eth.o)
 .debug_loc     0x00003822     0x13f1 net/libnet.a(net.o)
 .debug_loc     0x00004c13      0x10c net/libnet.a(rarp.o)
 .debug_loc     0x00004d1f      0xca6 net/libnet.a(tftp.o)
 .debug_loc     0x000059c5      0x93f net/libnet.a(bootp.o)
 .debug_loc     0x00006304     0x1251 drivers/mmc/libmmc.a(mmc.o)
 .debug_loc     0x00007555     0x1295 drivers/mmc/libmmc.a(himciv200.o)
 .debug_loc     0x000087ea       0xfd drivers/mtd/nand/libnand.a(nand.o)
 .debug_loc     0x000088e7     0x4845 drivers/mtd/nand/libnand.a(nand_base.o)
 .debug_loc     0x0000d12c     0x1bd1 drivers/mtd/nand/libnand.a(nand_bbt.o)
 .debug_loc     0x0000ecfd      0x5b0 drivers/mtd/nand/libnand.a(nand_ecc.o)
 .debug_loc     0x0000f2ad      0x1e4 drivers/mtd/nand/libnand.a(hinfc_common.o)
 .debug_loc     0x0000f491      0x12e drivers/mtd/nand/hifmc100/libhifmcv100.a(hifmc100_os.o)
 .debug_loc     0x0000f5bf     0x1339 drivers/mtd/nand/hifmc100/libhifmcv100.a(hifmc100.o)
 .debug_loc     0x000108f8      0x836 drivers/mtd/nand/hifmc100/libhifmcv100.a(hifmc_spi_nand_ids.o)
 .debug_loc     0x0001112e       0xe5 drivers/mtd/spi/libspi_flash.a(spi_compatible.o)
 .debug_loc     0x00011213      0x3d3 drivers/mtd/spi/hifmc100/libhifmcv100.a(hifmc100_os.o)
 .debug_loc     0x000115e6     0x1204 drivers/mtd/spi/hifmc100/libhifmcv100.a(hifmc_spi_nor_ids.o)
 .debug_loc     0x000127ea     0x1353 drivers/mtd/spi/hifmc100/libhifmcv100.a(hifmc100.o)
 .debug_loc     0x00013b3d      0x923 drivers/net/hisfv300/libhisfv300.a(net-drv.o)
 .debug_loc     0x00014460      0x1ba drivers/net/hisfv300/libhisfv300.a(mii-drv.o)
 .debug_loc     0x0001461a      0x25d drivers/net/hisfv300/libhisfv300.a(ctrl.o)
 .debug_loc     0x00014877      0x17d drivers/net/hisfv300/libhisfv300.a(glb.o)
 .debug_loc     0x000149f4      0x4a6 drivers/net/hisfv300/libhisfv300.a(mac.o)
 .debug_loc     0x00014e9a      0x266 drivers/net/hisfv300/libhisfv300.a(mdio.o)
 .debug_loc     0x00015100      0x130 drivers/net/hisfv300/libhisfv300.a(sys.o)
 .debug_loc     0x00015230     0x1272 common/bootss2.a(cmd_bootss2.o)
 .debug_loc     0x000164a2       0xa0 drivers/serial/libserial.a(serial_pl01x.o)
 .debug_loc     0x00016542      0x452 drivers/usb/gadget/hiudc/libhiudc.a(device_loader.o)
 .debug_loc     0x00016994     0x257a drivers/usb/gadget/hiudc/libhiudc.a(device.o)
 .debug_loc     0x00018f0e      0x1dd common/libcommon.a(cmd_boot.o)
 .debug_loc     0x000190eb      0xc88 common/libcommon.a(cmd_bootm.o)
 .debug_loc     0x00019d73      0x286 common/libcommon.a(cmd_ddr_training_v2.o)
 .debug_loc     0x00019ff9      0x5e0 common/libcommon.a(cmd_ext2.o)
 .debug_loc     0x0001a5d9      0x4ff common/libcommon.a(cmd_fat.o)
 .debug_loc     0x0001aad8      0x1ac common/libcommon.a(cmd_getinfo.o)
 .debug_loc     0x0001ac84       0xb2 common/libcommon.a(cmd_help.o)
 .debug_loc     0x0001ad36      0x208 common/libcommon.a(cmd_hle_double_system_bootm.o)
 .debug_loc     0x0001af3e      0x9dc common/libcommon.a(cmd_load.o)
 .debug_loc     0x0001b91a     0x1526 common/libcommon.a(cmd_mem.o)
 .debug_loc     0x0001ce40      0x651 common/libcommon.a(cmd_mii.o)
 .debug_loc     0x0001d491      0x7f0 common/libcommon.a(cmd_mmc.o)
 .debug_loc     0x0001dc81      0xee2 common/libcommon.a(cmd_nand.o)
 .debug_loc     0x0001eb63      0x448 common/libcommon.a(cmd_net.o)
 .debug_loc     0x0001efab      0xb0a common/libcommon.a(cmd_nvedit.o)
 .debug_loc     0x0001fab5      0x836 common/libcommon.a(cmd_sf.o)
 .debug_loc     0x000202eb      0x24f common/libcommon.a(cmd_ugzip.o)
 .debug_loc     0x0002053a       0x84 common/libcommon.a(cmd_version.o)
 .debug_loc     0x000205be     0x1028 common/libcommon.a(command.o)
 .debug_loc     0x000215e6      0x5ab common/libcommon.a(console.o)
 .debug_loc     0x00021b91     0x191e common/libcommon.a(dlmalloc.o)
 .debug_loc     0x000234af      0x2c3 common/libcommon.a(download_process.o)
 .debug_loc     0x00023772      0x308 common/libcommon.a(env_common.o)
 .debug_loc     0x00023a7a       0x3a common/libcommon.a(env_common_func.o)
 .debug_loc     0x00023ab4       0xa4 common/libcommon.a(env_emmc.o)
 .debug_loc     0x00023b58      0x303 common/libcommon.a(env_nand.o)
 .debug_loc     0x00023e5b      0x14d common/libcommon.a(env_sf.o)
 .debug_loc     0x00023fa8      0x2e8 common/libcommon.a(flash_part.o)
 .debug_loc     0x00024290      0xa62 common/libcommon.a(image.o)
 .debug_loc     0x00024cf2     0x1532 common/libcommon.a(main.o)
 .debug_loc     0x00026224      0x79b common/libcommon.a(miiphyutil.o)
 .debug_loc     0x000269bf      0x171 common/libcommon.a(stdio.o)
 .debug_loc     0x00026b30      0xad6 common/libcommon.a(xyzModem.o)
 .debug_loc     0x00027606      0x10a board/hi3516cv300/libhi3516cv300.a(board.o)
 .debug_loc     0x00027710       0x8a lib/libgeneric.a(crc16.o)
 .debug_loc     0x0002779a      0x256 lib/libgeneric.a(crc32.o)
 .debug_loc     0x000279f0      0x2ce lib/libgeneric.a(display_options.o)
 .debug_loc     0x00027cbe      0x171 lib/libgeneric.a(div64.o)
 .debug_loc     0x00027e2f      0x393 lib/libgeneric.a(gunzip.o)
 .debug_loc     0x000281c2       0x9e lib/libgeneric.a(net_utils.o)
 .debug_loc     0x00028260      0xb2e lib/libgeneric.a(string.o)
 .debug_loc     0x00028d8e       0x39 lib/libgeneric.a(time.o)
 .debug_loc     0x00028dc7     0x1949 lib/libgeneric.a(vsprintf.o)
 .debug_loc     0x0002a710      0x420 lib/libgeneric.a(match_table.o)
 .debug_loc     0x0002ab30     0x2aa0 lib/libgeneric.a(zlib.o)
 .debug_loc     0x0002d5d0      0x3ef lib/hw_dec/libhw_dec.a(hw_decompress.o)
 .debug_loc     0x0002d9bf      0xafd drivers/ddr/libddr.a(ddr_cmd_ctl.o)
 .debug_loc     0x0002e4bc      0x35d arch/arm/cpu/hi3516cv300/hi3516cv300/libhi3516cv300.a(timer.o)
 .debug_loc     0x0002e819      0x23a arch/arm/lib/libarm.a(bootm.o)
 .debug_loc     0x0002ea53       0x63 arch/arm/lib/libarm.a(process.o)
 .debug_loc     0x0002eab6       0x84 arch/arm/lib/libarm.a(reset.o)
 .debug_loc     0x0002eb3a       0x63 arch/arm/lib/libarm.a(hibernate_arm9.o)
 .debug_loc     0x0002eb9d     0x1885 fs/fat/libfat.a(fat.o)
 .debug_loc     0x00030422      0xcb7 fs/ext2/libext2fs.a(ext2fs.o)
 .debug_loc     0x000310d9      0x2c1 fs/ext2/libext2fs.a(dev.o)
 .debug_loc     0x0003139a      0x35a disk/libdisk.a(part.o)
 .debug_loc     0x000316f4      0x46d disk/libdisk.a(part_dos.o)
 .debug_loc     0x00031b61      0x1a9 drivers/mmc/libmmc.a(himciv200_dbg_boot_read.o)
 .debug_loc     0x00031d0a      0x3b4 fs/ext4/libext4.a(unsparse.o)
 .debug_loc     0x000320be      0x13f drivers/mtd/libmtd.a(hifmc_common.o)
 .debug_loc     0x000321fd       0x94 drivers/mtd/libmtd.a(hifmc_hi3516cv300.o)
 .debug_loc     0x00032291      0xdd9 drivers/mtd/nand/libnand.a(nand_util.o)
 .debug_loc     0x0003306a     0x14a6 lib/libgeneric.a(vsnprintf.o)
 .debug_loc     0x00034510       0xe1 arch/arm/lib/libarm.a(cache-cp15.o)
 .debug_loc     0x000345f1       0x2c /home/yuanda.yu/svndebug/trunk/retarded/Hi3516CV300_SDK_V1.0.2.0/osdrv/opensource/u-boot/u-boot-2010.06/arch/arm/lib/eabi_compat.o

.debug_ranges   0x00000000     0x2f70
 .debug_ranges  0x00000000      0x210 drivers/ddr/ddr_training_impl.o
 .debug_ranges  0x00000210       0x18 drivers/ddr/ddr_training_ctl.o
 .debug_ranges  0x00000228       0x30 arch/arm/cpu/hi3516cv300/libhi3516cv300.a(lowlevel_init_v300.o)
 .debug_ranges  0x00000258      0x108 arch/arm/cpu/hi3516cv300/libhi3516cv300.a(emmc_boot.o)
 .debug_ranges  0x00000360       0x18 arch/arm/lib/libarm.a(board.o)
 .debug_ranges  0x00000378      0x150 net/libnet.a(net.o)
 .debug_ranges  0x000004c8       0xa8 net/libnet.a(tftp.o)
 .debug_ranges  0x00000570      0x100 net/libnet.a(bootp.o)
 .debug_ranges  0x00000670       0x78 drivers/mmc/libmmc.a(mmc.o)
 .debug_ranges  0x000006e8      0x288 drivers/mmc/libmmc.a(himciv200.o)
 .debug_ranges  0x00000970       0x18 drivers/mtd/nand/libnand.a(nand.o)
 .debug_ranges  0x00000988      0x270 drivers/mtd/nand/libnand.a(nand_base.o)
 .debug_ranges  0x00000bf8      0x128 drivers/mtd/nand/libnand.a(nand_bbt.o)
 .debug_ranges  0x00000d20       0x18 drivers/mtd/nand/libnand.a(nand_ecc.o)
 .debug_ranges  0x00000d38       0x48 drivers/mtd/nand/hifmc100/libhifmcv100.a(hifmc100_os.o)
 .debug_ranges  0x00000d80      0x128 drivers/mtd/nand/hifmc100/libhifmcv100.a(hifmc100.o)
 .debug_ranges  0x00000ea8       0xd8 drivers/mtd/nand/hifmc100/libhifmcv100.a(hifmc_spi_nand_ids.o)
 .debug_ranges  0x00000f80       0x70 drivers/mtd/spi/hifmc100/libhifmcv100.a(hifmc100_os.o)
 .debug_ranges  0x00000ff0      0x1f0 drivers/mtd/spi/hifmc100/libhifmcv100.a(hifmc_spi_nor_ids.o)
 .debug_ranges  0x000011e0      0x110 drivers/mtd/spi/hifmc100/libhifmcv100.a(hifmc100.o)
 .debug_ranges  0x000012f0      0x108 drivers/net/hisfv300/libhisfv300.a(net-drv.o)
 .debug_ranges  0x000013f8       0x40 drivers/net/hisfv300/libhisfv300.a(mii-drv.o)
 .debug_ranges  0x00001438       0x38 drivers/net/hisfv300/libhisfv300.a(ctrl.o)
 .debug_ranges  0x00001470       0xe8 drivers/net/hisfv300/libhisfv300.a(glb.o)
 .debug_ranges  0x00001558       0x98 drivers/net/hisfv300/libhisfv300.a(mac.o)
 .debug_ranges  0x000015f0       0xb8 drivers/net/hisfv300/libhisfv300.a(sys.o)
 .debug_ranges  0x000016a8      0x290 common/bootss2.a(cmd_bootss2.o)
 .debug_ranges  0x00001938       0x18 drivers/serial/libserial.a(serial_pl01x.o)
 .debug_ranges  0x00001950       0x20 drivers/usb/gadget/hiudc/libhiudc.a(device_loader.o)
 .debug_ranges  0x00001970      0x380 drivers/usb/gadget/hiudc/libhiudc.a(device.o)
 .debug_ranges  0x00001cf0       0xd0 common/libcommon.a(cmd_bootm.o)
 .debug_ranges  0x00001dc0       0x88 common/libcommon.a(cmd_ddr_training_v2.o)
 .debug_ranges  0x00001e48       0x18 common/libcommon.a(cmd_ext2.o)
 .debug_ranges  0x00001e60       0x18 common/libcommon.a(cmd_fat.o)
 .debug_ranges  0x00001e78       0x60 common/libcommon.a(cmd_load.o)
 .debug_ranges  0x00001ed8       0xb0 common/libcommon.a(cmd_mem.o)
 .debug_ranges  0x00001f88       0xb0 common/libcommon.a(cmd_mii.o)
 .debug_ranges  0x00002038       0x58 common/libcommon.a(cmd_mmc.o)
 .debug_ranges  0x00002090       0xd0 common/libcommon.a(cmd_nand.o)
 .debug_ranges  0x00002160       0x18 common/libcommon.a(cmd_net.o)
 .debug_ranges  0x00002178       0x80 common/libcommon.a(cmd_nvedit.o)
 .debug_ranges  0x000021f8       0xe0 common/libcommon.a(cmd_sf.o)
 .debug_ranges  0x000022d8       0x18 common/libcommon.a(cmd_ugzip.o)
 .debug_ranges  0x000022f0       0xa8 common/libcommon.a(command.o)
 .debug_ranges  0x00002398       0x90 common/libcommon.a(dlmalloc.o)
 .debug_ranges  0x00002428       0x18 common/libcommon.a(download_process.o)
 .debug_ranges  0x00002440       0x78 common/libcommon.a(env_nand.o)
 .debug_ranges  0x000024b8       0x50 common/libcommon.a(flash_part.o)
 .debug_ranges  0x00002508       0x68 common/libcommon.a(image.o)
 .debug_ranges  0x00002570      0x148 common/libcommon.a(main.o)
 .debug_ranges  0x000026b8       0x30 common/libcommon.a(miiphyutil.o)
 .debug_ranges  0x000026e8       0x58 common/libcommon.a(stdio.o)
 .debug_ranges  0x00002740       0x40 common/libcommon.a(xyzModem.o)
 .debug_ranges  0x00002780       0x50 board/hi3516cv300/libhi3516cv300.a(board.o)
 .debug_ranges  0x000027d0       0x10 lib/libgeneric.a(gunzip.o)
 .debug_ranges  0x000027e0      0x168 lib/libgeneric.a(vsprintf.o)
 .debug_ranges  0x00002948       0x10 lib/libgeneric.a(match_table.o)
 .debug_ranges  0x00002958       0x50 lib/libgeneric.a(zlib.o)
 .debug_ranges  0x000029a8       0x30 lib/hw_dec/libhw_dec.a(hw_decompress.o)
 .debug_ranges  0x000029d8       0x78 drivers/ddr/libddr.a(ddr_cmd_ctl.o)
 .debug_ranges  0x00002a50       0x30 arch/arm/lib/libarm.a(bootm.o)
 .debug_ranges  0x00002a80      0x160 fs/fat/libfat.a(fat.o)
 .debug_ranges  0x00002be0      0x108 fs/ext2/libext2fs.a(ext2fs.o)
 .debug_ranges  0x00002ce8       0x20 fs/ext2/libext2fs.a(dev.o)
 .debug_ranges  0x00002d08       0x18 disk/libdisk.a(part.o)
 .debug_ranges  0x00002d20       0x18 disk/libdisk.a(part_dos.o)
 .debug_ranges  0x00002d38       0x18 drivers/mmc/libmmc.a(himciv200_dbg_boot_read.o)
 .debug_ranges  0x00002d50       0x40 fs/ext4/libext4.a(unsparse.o)
 .debug_ranges  0x00002d90       0xf8 drivers/mtd/nand/libnand.a(nand_util.o)
 .debug_ranges  0x00002e88       0xe8 lib/libgeneric.a(vsnprintf.o)

.debug_frame    0x00000000     0x6630
 .debug_frame   0x00000000      0x38c drivers/ddr/ddr_training_impl.o
 .debug_frame   0x0000038c       0x48 drivers/ddr/ddr_training_ctl.o
 .debug_frame   0x000003d4       0x9c drivers/ddr/ddr_training_boot.o
 .debug_frame   0x00000470       0x40 drivers/ddr/ddr_training_custom.o
 .debug_frame   0x000004b0       0x6c arch/arm/cpu/hi3516cv300/libhi3516cv300.a(lowlevel_init_v300.o)
 .debug_frame   0x0000051c       0x70 arch/arm/cpu/hi3516cv300/libhi3516cv300.a(emmc_boot.o)
 .debug_frame   0x0000058c       0x48 arch/arm/cpu/hi3516cv300/libhi3516cv300.a(chip.o)
 .debug_frame   0x000005d4      0x10c arch/arm/lib/libarm.a(board.o)
 .debug_frame   0x000006e0      0x134 arch/arm/lib/libarm.a(interrupts.o)
 .debug_frame   0x00000814       0xa0 net/libnet.a(eth.o)
 .debug_frame   0x000008b4      0x2a0 net/libnet.a(net.o)
 .debug_frame   0x00000b54       0x7c net/libnet.a(rarp.o)
 .debug_frame   0x00000bd0      0x124 net/libnet.a(tftp.o)
 .debug_frame   0x00000cf4       0x88 net/libnet.a(bootp.o)
 .debug_frame   0x00000d7c      0x360 drivers/mmc/libmmc.a(mmc.o)
 .debug_frame   0x000010dc      0x190 drivers/mmc/libmmc.a(himciv200.o)
 .debug_frame   0x0000126c       0x38 drivers/mtd/nand/libnand.a(nand.o)
 .debug_frame   0x000012a4      0x848 drivers/mtd/nand/libnand.a(nand_base.o)
 .debug_frame   0x00001aec      0x1e8 drivers/mtd/nand/libnand.a(nand_bbt.o)
 .debug_frame   0x00001cd4       0x48 drivers/mtd/nand/libnand.a(nand_ecc.o)
 .debug_frame   0x00001d1c      0x110 drivers/mtd/nand/libnand.a(hinfc_common.o)
 .debug_frame   0x00001e2c       0x48 drivers/mtd/nand/hifmc100/libhifmcv100.a(hifmc100_os.o)
 .debug_frame   0x00001e74      0x234 drivers/mtd/nand/hifmc100/libhifmcv100.a(hifmc100.o)
 .debug_frame   0x000020a8      0x104 drivers/mtd/nand/hifmc100/libhifmcv100.a(hifmc_spi_nand_ids.o)
 .debug_frame   0x000021ac       0x60 drivers/mtd/spi/libspi_flash.a(spi_compatible.o)
 .debug_frame   0x0000220c       0xa4 drivers/mtd/spi/hifmc100/libhifmcv100.a(hifmc100_os.o)
 .debug_frame   0x000022b0      0x264 drivers/mtd/spi/hifmc100/libhifmcv100.a(hifmc_spi_nor_ids.o)
 .debug_frame   0x00002514      0x234 drivers/mtd/spi/hifmc100/libhifmcv100.a(hifmc100.o)
 .debug_frame   0x00002748      0x17c drivers/net/hisfv300/libhisfv300.a(net-drv.o)
 .debug_frame   0x000028c4       0x98 drivers/net/hisfv300/libhisfv300.a(mii-drv.o)
 .debug_frame   0x0000295c       0x70 drivers/net/hisfv300/libhisfv300.a(ctrl.o)
 .debug_frame   0x000029cc       0x2c drivers/net/hisfv300/libhisfv300.a(glb.o)
 .debug_frame   0x000029f8       0xc8 drivers/net/hisfv300/libhisfv300.a(mac.o)
 .debug_frame   0x00002ac0       0xa4 drivers/net/hisfv300/libhisfv300.a(mdio.o)
 .debug_frame   0x00002b64       0xa4 drivers/net/hisfv300/libhisfv300.a(sys.o)
 .debug_frame   0x00002c08       0xfc common/bootss2.a(cmd_bootss2.o)
 .debug_frame   0x00002d04       0x90 drivers/serial/libserial.a(serial_pl01x.o)
 .debug_frame   0x00002d94      0x158 drivers/usb/gadget/hiudc/libhiudc.a(device_loader.o)
 .debug_frame   0x00002eec      0x468 drivers/usb/gadget/hiudc/libhiudc.a(device.o)
 .debug_frame   0x00003354       0x3c common/libcommon.a(cmd_boot.o)
 .debug_frame   0x00003390      0x124 common/libcommon.a(cmd_bootm.o)
 .debug_frame   0x000034b4       0x60 common/libcommon.a(cmd_ddr_training_v2.o)
 .debug_frame   0x00003514       0x68 common/libcommon.a(cmd_ext2.o)
 .debug_frame   0x0000357c       0x88 common/libcommon.a(cmd_fat.o)
 .debug_frame   0x00003604       0x30 common/libcommon.a(cmd_getinfo.o)
 .debug_frame   0x00003634       0x28 common/libcommon.a(cmd_help.o)
 .debug_frame   0x0000365c       0xa0 common/libcommon.a(cmd_hle_double_system_bootm.o)
 .debug_frame   0x000036fc      0x1a8 common/libcommon.a(cmd_load.o)
 .debug_frame   0x000038a4      0x174 common/libcommon.a(cmd_mem.o)
 .debug_frame   0x00003a18       0x88 common/libcommon.a(cmd_mii.o)
 .debug_frame   0x00003aa0       0x5c common/libcommon.a(cmd_mmc.o)
 .debug_frame   0x00003afc      0x110 common/libcommon.a(cmd_nand.o)
 .debug_frame   0x00003c0c       0x90 common/libcommon.a(cmd_net.o)
 .debug_frame   0x00003c9c      0x154 common/libcommon.a(cmd_nvedit.o)
 .debug_frame   0x00003df0       0xc0 common/libcommon.a(cmd_sf.o)
 .debug_frame   0x00003eb0       0x38 common/libcommon.a(cmd_ugzip.o)
 .debug_frame   0x00003ee8       0x28 common/libcommon.a(cmd_version.o)
 .debug_frame   0x00003f10      0x10c common/libcommon.a(command.o)
 .debug_frame   0x0000401c      0x2a0 common/libcommon.a(console.o)
 .debug_frame   0x000042bc      0x174 common/libcommon.a(dlmalloc.o)
 .debug_frame   0x00004430       0x84 common/libcommon.a(download_process.o)
 .debug_frame   0x000044b4       0xb4 common/libcommon.a(env_common.o)
 .debug_frame   0x00004568       0x58 common/libcommon.a(env_common_func.o)
 .debug_frame   0x000045c0       0x6c common/libcommon.a(env_emmc.o)
 .debug_frame   0x0000462c       0xc8 common/libcommon.a(env_nand.o)
 .debug_frame   0x000046f4       0x70 common/libcommon.a(env_sf.o)
 .debug_frame   0x00004764       0x48 common/libcommon.a(exports.o)
 .debug_frame   0x000047ac       0x88 common/libcommon.a(flash_part.o)
 .debug_frame   0x00004834      0x24c common/libcommon.a(image.o)
 .debug_frame   0x00004a80      0x184 common/libcommon.a(main.o)
 .debug_frame   0x00004c04      0x1d8 common/libcommon.a(miiphyutil.o)
 .debug_frame   0x00004ddc       0x90 common/libcommon.a(stdio.o)
 .debug_frame   0x00004e6c      0x144 common/libcommon.a(xyzModem.o)
 .debug_frame   0x00004fb0       0x20 product/libproduct.a(sample.o)
 .debug_frame   0x00004fd0       0xa4 board/hi3516cv300/libhi3516cv300.a(board.o)
 .debug_frame   0x00005074       0x28 lib/libgeneric.a(crc16.o)
 .debug_frame   0x0000509c       0x54 lib/libgeneric.a(crc32.o)
 .debug_frame   0x000050f0       0x90 lib/libgeneric.a(display_options.o)
 .debug_frame   0x00005180       0x3c lib/libgeneric.a(div64.o)
 .debug_frame   0x000051bc       0x7c lib/libgeneric.a(gunzip.o)
 .debug_frame   0x00005238       0x34 lib/libgeneric.a(net_utils.o)
 .debug_frame   0x0000526c      0x1cc lib/libgeneric.a(string.o)
 .debug_frame   0x00005438       0x2c lib/libgeneric.a(time.o)
 .debug_frame   0x00005464      0x1c0 lib/libgeneric.a(vsprintf.o)
 .debug_frame   0x00005624       0xb0 lib/libgeneric.a(match_table.o)
 .debug_frame   0x000056d4      0x170 lib/libgeneric.a(zlib.o)
 .debug_frame   0x00005844       0xb8 lib/hw_dec/libhw_dec.a(hw_decompress.o)
 .debug_frame   0x000058fc       0xc8 drivers/ddr/libddr.a(ddr_cmd_ctl.o)
 .debug_frame   0x000059c4       0xdc arch/arm/cpu/hi3516cv300/hi3516cv300/libhi3516cv300.a(timer.o)
 .debug_frame   0x00005aa0       0x58 arch/arm/lib/libarm.a(bootm.o)
 .debug_frame   0x00005af8       0x20 arch/arm/lib/libarm.a(cache.o)
 .debug_frame   0x00005b18       0x3c arch/arm/lib/libarm.a(process.o)
 .debug_frame   0x00005b54       0x28 arch/arm/lib/libarm.a(reset.o)
 .debug_frame   0x00005b7c       0x20 arch/arm/lib/libarm.a(hibernate_arm9.o)
 .debug_frame   0x00005b9c      0x1e8 fs/fat/libfat.a(fat.o)
 .debug_frame   0x00005d84      0x180 fs/ext2/libext2fs.a(ext2fs.o)
 .debug_frame   0x00005f04       0x58 fs/ext2/libext2fs.a(dev.o)
 .debug_frame   0x00005f5c       0xcc disk/libdisk.a(part.o)
 .debug_frame   0x00006028       0xe8 disk/libdisk.a(part_dos.o)
 .debug_frame   0x00006110       0x40 drivers/mmc/libmmc.a(himciv200_dbg_boot_read.o)
 .debug_frame   0x00006150       0x5c fs/ext4/libext4.a(unsparse.o)
 .debug_frame   0x000061ac       0x80 drivers/mtd/libmtd.a(hifmc_common.o)
 .debug_frame   0x0000622c       0x40 drivers/mtd/libmtd.a(hifmc_hi3516cv300.o)
 .debug_frame   0x0000626c      0x1a0 drivers/mtd/nand/libnand.a(nand_util.o)
 .debug_frame   0x0000640c       0x78 lib/libgeneric.a(vsnprintf.o)
 .debug_frame   0x00006484       0x28 arch/arm/cpu/hi3516cv300/libhi3516cv300.a(cpu.o)
 .debug_frame   0x000064ac       0xe4 arch/arm/lib/libarm.a(cache-cp15.o)
 .debug_frame   0x00006590       0x38 /home/yuanda.yu/svndebug/trunk/retarded/Hi3516CV300_SDK_V1.0.2.0/osdrv/opensource/u-boot/u-boot-2010.06/arch/arm/lib/eabi_compat.o
 .debug_frame   0x000065c8       0x20 /opt/hisi-linux/x86-arm/arm-himix100-linux/host_bin/../lib/gcc/arm-linux-uclibceabi/6.3.0/libgcc.a(_divsi3.o)
 .debug_frame   0x000065e8       0x28 /opt/hisi-linux/x86-arm/arm-himix100-linux/host_bin/../lib/gcc/arm-linux-uclibceabi/6.3.0/libgcc.a(_dvmd_lnx.o)
 .debug_frame   0x00006610       0x20 /opt/hisi-linux/x86-arm/arm-himix100-linux/host_bin/../lib/gcc/arm-linux-uclibceabi/6.3.0/libgcc.a(_udivsi3.o)
